(dp0
S'METTS MARK'
p1
ccopy_reg
_reconstructor
p2
(cpandas.core.series
Series
p3
c__builtin__
object
p4
Ntp5
Rp6
(dp7
S'_metadata'
p8
(lp9
S'name'
p10
asS'_data'
p11
g2
(cpandas.core.internals
SingleBlockManager
p12
g4
Ntp13
Rp14
((lp15
cpandas.core.indexes.base
_new_Index
p16
(cpandas.core.indexes.base
Index
p17
(dp18
S'data'
p19
cnumpy.core.multiarray
_reconstruct
p20
(cnumpy
ndarray
p21
(I0
tp22
S'b'
p23
tp24
Rp25
(I1
(I23
tp26
cnumpy
dtype
p27
(S'O8'
p28
I0
I1
tp29
Rp30
(I3
S'|'
p31
NNNI-1
I-1
I63
tp32
bI00
(lp33
S'bonus'
p34
aS'deferral_payments'
p35
aS'deferred_income'
p36
aS'director_fees'
p37
aS'email_address'
p38
aS'exercised_stock_options'
p39
aS'expenses'
p40
aS'from_messages'
p41
aS'from_poi_to_this_person'
p42
aS'from_this_person_to_poi'
p43
aS'loan_advances'
p44
aS'long_term_incentive'
p45
aS'other'
p46
aS'poi'
p47
aS'restricted_stock'
p48
aS'restricted_stock_deferred'
p49
aS'salary'
p50
aS'shared_receipt_with_poi'
p51
aS'to_messages'
p52
aS'total_payments'
p53
aS'total_stock_value'
p54
aS'ratio_payments_stock'
p55
aS'poi_this_person'
p56
atp57
bsg10
Nstp58
Rp59
a(lp60
g20
(g21
(I0
tp61
g23
tp62
Rp63
(I1
(I23
tp64
g30
I00
(lp65
I600000
aI0
aI0
aI0
aS'mark.metts@enron.com'
p66
aI0
aI94299
aI29
aI38
aI1
aI0
aI0
aI1740
aI00
aI585062
aI0
aI365788
aI702
aI807
aI1061827
aI585062
aI1
aI39
atp67
ba(lp68
g16
(g17
(dp69
g19
g20
(g21
(I0
tp70
g23
tp71
Rp72
(I1
(I23
tp73
g30
I00
(lp74
g34
ag35
ag36
ag37
ag38
ag39
ag40
ag41
ag42
ag43
ag44
ag45
ag46
ag47
ag48
ag49
ag50
ag51
ag52
ag53
ag54
ag55
ag56
atp75
bsg10
Nstp76
Rp77
a(dp78
S'0.14.1'
p79
(dp80
S'axes'
p81
g15
sS'blocks'
p82
(lp83
(dp84
S'mgr_locs'
p85
c__builtin__
slice
p86
(I0
I23
I1
tp87
Rp88
sS'values'
p89
g63
sasstp90
bsS'_typ'
p91
S'series'
p92
sg10
g1
sbsS'BAXTER JOHN C'
p93
g2
(g3
g4
Ntp94
Rp95
(dp96
g8
g9
sg11
g2
(g12
g4
Ntp97
Rp98
((lp99
g59
a(lp100
g20
(g21
(I0
tp101
g23
tp102
Rp103
(I1
(I23
tp104
g30
I00
(lp105
I1200000
aI1295738
aI-1386055
aI0
aS'NaN'
p106
aI6680544
aI11200
aI0
aI0
aI0
aI0
aI1586055
aI2660303
aI00
aI3942714
aI0
aI267102
aI0
aI0
aI5634343
aI10623258
aI0
aI0
atp107
ba(lp108
g16
(g17
(dp109
g19
g20
(g21
(I0
tp110
g23
tp111
Rp112
(I1
(I23
tp113
g30
I00
(lp114
g34
ag35
ag36
ag37
ag38
ag39
ag40
ag41
ag42
ag43
ag44
ag45
ag46
ag47
ag48
ag49
ag50
ag51
ag52
ag53
ag54
ag55
ag56
atp115
bsg10
Nstp116
Rp117
a(dp118
g79
(dp119
g81
g99
sg82
(lp120
(dp121
g85
g86
(I0
I23
I1
tp122
Rp123
sg89
g103
sasstp124
bsg91
g92
sg10
g93
sbsS'ELLIOTT STEVEN'
p125
g2
(g3
g4
Ntp126
Rp127
(dp128
g8
g9
sg11
g2
(g12
g4
Ntp129
Rp130
((lp131
g59
a(lp132
g20
(g21
(I0
tp133
g23
tp134
Rp135
(I1
(I23
tp136
g30
I00
(lp137
I350000
aI0
aI-400729
aI0
aS'steven.elliott@enron.com'
p138
aI4890344
aI78552
aI0
aI0
aI0
aI0
aI0
aI12961
aI00
aI1788391
aI0
aI170941
aI0
aI0
aI211725
aI6678735
aI0
aI0
atp139
ba(lp140
g16
(g17
(dp141
g19
g20
(g21
(I0
tp142
g23
tp143
Rp144
(I1
(I23
tp145
g30
I00
(lp146
g34
ag35
ag36
ag37
ag38
ag39
ag40
ag41
ag42
ag43
ag44
ag45
ag46
ag47
ag48
ag49
ag50
ag51
ag52
ag53
ag54
ag55
ag56
atp147
bsg10
Nstp148
Rp149
a(dp150
g79
(dp151
g81
g131
sg82
(lp152
(dp153
g85
g86
(I0
I23
I1
tp154
Rp155
sg89
g135
sasstp156
bsg91
g92
sg10
g125
sbsS'CORDES WILLIAM R'
p157
g2
(g3
g4
Ntp158
Rp159
(dp160
g8
g9
sg11
g2
(g12
g4
Ntp161
Rp162
((lp163
g59
a(lp164
g20
(g21
(I0
tp165
g23
tp166
Rp167
(I1
(I23
tp168
g30
I00
(lp169
I0
aI0
aI0
aI0
aS'bill.cordes@enron.com'
p170
aI651850
aI0
aI12
aI10
aI0
aI0
aI0
aI0
aI00
aI386335
aI0
aI0
aI58
aI764
aI0
aI1038185
aI0
aI10
atp171
ba(lp172
g16
(g17
(dp173
g19
g20
(g21
(I0
tp174
g23
tp175
Rp176
(I1
(I23
tp177
g30
I00
(lp178
g34
ag35
ag36
ag37
ag38
ag39
ag40
ag41
ag42
ag43
ag44
ag45
ag46
ag47
ag48
ag49
ag50
ag51
ag52
ag53
ag54
ag55
ag56
atp179
bsg10
Nstp180
Rp181
a(dp182
g79
(dp183
g81
g163
sg82
(lp184
(dp185
g85
g86
(I0
I23
I1
tp186
Rp187
sg89
g167
sasstp188
bsg91
g92
sg10
g157
sbsS'HANNON KEVIN P'
p189
g2
(g3
g4
Ntp190
Rp191
(dp192
g8
g9
sg11
g2
(g12
g4
Ntp193
Rp194
((lp195
g59
a(lp196
g20
(g21
(I0
tp197
g23
tp198
Rp199
(I1
(I23
tp200
g30
I00
(lp201
I1500000
aI0
aI-3117011
aI0
aS'kevin.hannon@enron.com'
p202
aI5538001
aI34039
aI32
aI32
aI21
aI0
aI1617011
aI11350
aI01
aI853064
aI0
aI243293
aI1035
aI1045
aI288682
aI6391065
aI0
aI53
atp203
ba(lp204
g16
(g17
(dp205
g19
g20
(g21
(I0
tp206
g23
tp207
Rp208
(I1
(I23
tp209
g30
I00
(lp210
g34
ag35
ag36
ag37
ag38
ag39
ag40
ag41
ag42
ag43
ag44
ag45
ag46
ag47
ag48
ag49
ag50
ag51
ag52
ag53
ag54
ag55
ag56
atp211
bsg10
Nstp212
Rp213
a(dp214
g79
(dp215
g81
g195
sg82
(lp216
(dp217
g85
g86
(I0
I23
I1
tp218
Rp219
sg89
g199
sasstp220
bsg91
g92
sg10
g189
sbsS'MORDAUNT KRISTINA M'
p221
g2
(g3
g4
Ntp222
Rp223
(dp224
g8
g9
sg11
g2
(g12
g4
Ntp225
Rp226
((lp227
g59
a(lp228
g20
(g21
(I0
tp229
g23
tp230
Rp231
(I1
(I23
tp232
g30
I00
(lp233
I325000
aI0
aI0
aI0
aS'kristina.mordaunt@enron.com'
p234
aI0
aI35018
aI0
aI0
aI0
aI0
aI0
aI1411
aI00
aI208510
aI0
aI267093
aI0
aI0
aI628522
aI208510
aI3
aI0
atp235
ba(lp236
g16
(g17
(dp237
g19
g20
(g21
(I0
tp238
g23
tp239
Rp240
(I1
(I23
tp241
g30
I00
(lp242
g34
ag35
ag36
ag37
ag38
ag39
ag40
ag41
ag42
ag43
ag44
ag45
ag46
ag47
ag48
ag49
ag50
ag51
ag52
ag53
ag54
ag55
ag56
atp243
bsg10
Nstp244
Rp245
a(dp246
g79
(dp247
g81
g227
sg82
(lp248
(dp249
g85
g86
(I0
I23
I1
tp250
Rp251
sg89
g231
sasstp252
bsg91
g92
sg10
g221
sbsS'MEYER ROCKFORD G'
p253
g2
(g3
g4
Ntp254
Rp255
(dp256
g8
g9
sg11
g2
(g12
g4
Ntp257
Rp258
((lp259
g59
a(lp260
g20
(g21
(I0
tp261
g23
tp262
Rp263
(I1
(I23
tp264
g30
I00
(lp265
I0
aI1848227
aI0
aI0
aS'rockford.meyer@enron.com'
p266
aI493489
aI0
aI28
aI0
aI0
aI0
aI0
aI0
aI00
aI462384
aI0
aI0
aI22
aI232
aI1848227
aI955873
aI1
aI0
atp267
ba(lp268
g16
(g17
(dp269
g19
g20
(g21
(I0
tp270
g23
tp271
Rp272
(I1
(I23
tp273
g30
I00
(lp274
g34
ag35
ag36
ag37
ag38
ag39
ag40
ag41
ag42
ag43
ag44
ag45
ag46
ag47
ag48
ag49
ag50
ag51
ag52
ag53
ag54
ag55
ag56
atp275
bsg10
Nstp276
Rp277
a(dp278
g79
(dp279
g81
g259
sg82
(lp280
(dp281
g85
g86
(I0
I23
I1
tp282
Rp283
sg89
g263
sasstp284
bsg91
g92
sg10
g253
sbsS'MCMAHON JEFFREY'
p285
g2
(g3
g4
Ntp286
Rp287
(dp288
g8
g9
sg11
g2
(g12
g4
Ntp289
Rp290
((lp291
g59
a(lp292
g20
(g21
(I0
tp293
g23
tp294
Rp295
(I1
(I23
tp296
g30
I00
(lp297
I2600000
aI0
aI0
aI0
aS'jeffrey.mcmahon@enron.com'
p298
aI1104054
aI137108
aI48
aI58
aI26
aI0
aI694862
aI297353
aI00
aI558801
aI0
aI370448
aI2228
aI2355
aI4099771
aI1662855
aI2
aI84
atp299
ba(lp300
g16
(g17
(dp301
g19
g20
(g21
(I0
tp302
g23
tp303
Rp304
(I1
(I23
tp305
g30
I00
(lp306
g34
ag35
ag36
ag37
ag38
ag39
ag40
ag41
ag42
ag43
ag44
ag45
ag46
ag47
ag48
ag49
ag50
ag51
ag52
ag53
ag54
ag55
ag56
atp307
bsg10
Nstp308
Rp309
a(dp310
g79
(dp311
g81
g291
sg82
(lp312
(dp313
g85
g86
(I0
I23
I1
tp314
Rp315
sg89
g295
sasstp316
bsg91
g92
sg10
g285
sbsS'HORTON STANLEY C'
p317
g2
(g3
g4
Ntp318
Rp319
(dp320
g8
g9
sg11
g2
(g12
g4
Ntp321
Rp322
((lp323
g59
a(lp324
g20
(g21
(I0
tp325
g23
tp326
Rp327
(I1
(I23
tp328
g30
I00
(lp329
I0
aI3131860
aI0
aI0
aS'stanley.horton@enron.com'
p330
aI5210569
aI0
aI1073
aI44
aI15
aI0
aI0
aI0
aI00
aI2046079
aI0
aI0
aI1074
aI2350
aI3131860
aI7256648
aI0
aI59
atp331
ba(lp332
g16
(g17
(dp333
g19
g20
(g21
(I0
tp334
g23
tp335
Rp336
(I1
(I23
tp337
g30
I00
(lp338
g34
ag35
ag36
ag37
ag38
ag39
ag40
ag41
ag42
ag43
ag44
ag45
ag46
ag47
ag48
ag49
ag50
ag51
ag52
ag53
ag54
ag55
ag56
atp339
bsg10
Nstp340
Rp341
a(dp342
g79
(dp343
g81
g323
sg82
(lp344
(dp345
g85
g86
(I0
I23
I1
tp346
Rp347
sg89
g327
sasstp348
bsg91
g92
sg10
g317
sbsS'PIPER GREGORY F'
p349
g2
(g3
g4
Ntp350
Rp351
(dp352
g8
g9
sg11
g2
(g12
g4
Ntp353
Rp354
((lp355
g59
a(lp356
g20
(g21
(I0
tp357
g23
tp358
Rp359
(I1
(I23
tp360
g30
I00
(lp361
I400000
aI1130036
aI-33333
aI0
aS'greg.piper@enron.com'
p362
aI880290
aI43057
aI222
aI61
aI48
aI0
aI0
aI778
aI00
aI409554
aI-409554
aI197091
aI742
aI1238
aI1737629
aI880290
aI1
aI109
atp363
ba(lp364
g16
(g17
(dp365
g19
g20
(g21
(I0
tp366
g23
tp367
Rp368
(I1
(I23
tp369
g30
I00
(lp370
g34
ag35
ag36
ag37
ag38
ag39
ag40
ag41
ag42
ag43
ag44
ag45
ag46
ag47
ag48
ag49
ag50
ag51
ag52
ag53
ag54
ag55
ag56
atp371
bsg10
Nstp372
Rp373
a(dp374
g79
(dp375
g81
g355
sg82
(lp376
(dp377
g85
g86
(I0
I23
I1
tp378
Rp379
sg89
g359
sasstp380
bsg91
g92
sg10
g349
sbsS'HUMPHREY GENE E'
p381
g2
(g3
g4
Ntp382
Rp383
(dp384
g8
g9
sg11
g2
(g12
g4
Ntp385
Rp386
((lp387
g59
a(lp388
g20
(g21
(I0
tp389
g23
tp390
Rp391
(I1
(I23
tp392
g30
I00
(lp393
I0
aI2964506
aI0
aI0
aS'gene.humphrey@enron.com'
p394
aI2282768
aI4994
aI17
aI10
aI17
aI0
aI0
aI0
aI00
aI0
aI0
aI130724
aI119
aI128
aI3100224
aI2282768
aI1
aI27
atp395
ba(lp396
g16
(g17
(dp397
g19
g20
(g21
(I0
tp398
g23
tp399
Rp400
(I1
(I23
tp401
g30
I00
(lp402
g34
ag35
ag36
ag37
ag38
ag39
ag40
ag41
ag42
ag43
ag44
ag45
ag46
ag47
ag48
ag49
ag50
ag51
ag52
ag53
ag54
ag55
ag56
atp403
bsg10
Nstp404
Rp405
a(dp406
g79
(dp407
g81
g387
sg82
(lp408
(dp409
g85
g86
(I0
I23
I1
tp410
Rp411
sg89
g391
sasstp412
bsg91
g92
sg10
g381
sbsS'UMANOFF ADAM S'
p413
g2
(g3
g4
Ntp414
Rp415
(dp416
g8
g9
sg11
g2
(g12
g4
Ntp417
Rp418
((lp419
g59
a(lp420
g20
(g21
(I0
tp421
g23
tp422
Rp423
(I1
(I23
tp424
g30
I00
(lp425
I788750
aI0
aI0
aI0
aS'adam.umanoff@enron.com'
p426
aI0
aI53122
aI18
aI12
aI0
aI0
aI0
aI0
aI00
aI0
aI0
aI288589
aI41
aI111
aI1130461
aI0
aI0
aI12
atp427
ba(lp428
g16
(g17
(dp429
g19
g20
(g21
(I0
tp430
g23
tp431
Rp432
(I1
(I23
tp433
g30
I00
(lp434
g34
ag35
ag36
ag37
ag38
ag39
ag40
ag41
ag42
ag43
ag44
ag45
ag46
ag47
ag48
ag49
ag50
ag51
ag52
ag53
ag54
ag55
ag56
atp435
bsg10
Nstp436
Rp437
a(dp438
g79
(dp439
g81
g419
sg82
(lp440
(dp441
g85
g86
(I0
I23
I1
tp442
Rp443
sg89
g423
sasstp444
bsg91
g92
sg10
g413
sbsS'BLACHMAN JEREMY M'
p445
g2
(g3
g4
Ntp446
Rp447
(dp448
g8
g9
sg11
g2
(g12
g4
Ntp449
Rp450
((lp451
g59
a(lp452
g20
(g21
(I0
tp453
g23
tp454
Rp455
(I1
(I23
tp456
g30
I00
(lp457
I850000
aI0
aI0
aI0
aS'jeremy.blachman@enron.com'
p458
aI765313
aI84208
aI14
aI25
aI2
aI0
aI831809
aI272
aI00
aI189041
aI0
aI248546
aI2326
aI2475
aI2014835
aI954354
aI2
aI27
atp459
ba(lp460
g16
(g17
(dp461
g19
g20
(g21
(I0
tp462
g23
tp463
Rp464
(I1
(I23
tp465
g30
I00
(lp466
g34
ag35
ag36
ag37
ag38
ag39
ag40
ag41
ag42
ag43
ag44
ag45
ag46
ag47
ag48
ag49
ag50
ag51
ag52
ag53
ag54
ag55
ag56
atp467
bsg10
Nstp468
Rp469
a(dp470
g79
(dp471
g81
g451
sg82
(lp472
(dp473
g85
g86
(I0
I23
I1
tp474
Rp475
sg89
g455
sasstp476
bsg91
g92
sg10
g445
sbsS'SUNDE MARTIN'
p477
g2
(g3
g4
Ntp478
Rp479
(dp480
g8
g9
sg11
g2
(g12
g4
Ntp481
Rp482
((lp483
g59
a(lp484
g20
(g21
(I0
tp485
g23
tp486
Rp487
(I1
(I23
tp488
g30
I00
(lp489
I700000
aI0
aI0
aI0
aS'marty.sunde@enron.com'
p490
aI0
aI0
aI38
aI37
aI13
aI0
aI476451
aI111122
aI00
aI698920
aI0
aI257486
aI2565
aI2647
aI1545059
aI698920
aI2
aI50
atp491
ba(lp492
g16
(g17
(dp493
g19
g20
(g21
(I0
tp494
g23
tp495
Rp496
(I1
(I23
tp497
g30
I00
(lp498
g34
ag35
ag36
ag37
ag38
ag39
ag40
ag41
ag42
ag43
ag44
ag45
ag46
ag47
ag48
ag49
ag50
ag51
ag52
ag53
ag54
ag55
ag56
atp499
bsg10
Nstp500
Rp501
a(dp502
g79
(dp503
g81
g483
sg82
(lp504
(dp505
g85
g86
(I0
I23
I1
tp506
Rp507
sg89
g487
sasstp508
bsg91
g92
sg10
g477
sbsS'GIBBS DANA R'
p509
g2
(g3
g4
Ntp510
Rp511
(dp512
g8
g9
sg11
g2
(g12
g4
Ntp513
Rp514
((lp515
g59
a(lp516
g20
(g21
(I0
tp517
g23
tp518
Rp519
(I1
(I23
tp520
g30
I00
(lp521
I0
aI504610
aI0
aI0
aS'dana.gibbs@enron.com'
p522
aI2218275
aI0
aI12
aI0
aI0
aI0
aI461912
aI0
aI00
aI0
aI0
aI0
aI23
aI169
aI966522
aI2218275
aI0
aI0
atp523
ba(lp524
g16
(g17
(dp525
g19
g20
(g21
(I0
tp526
g23
tp527
Rp528
(I1
(I23
tp529
g30
I00
(lp530
g34
ag35
ag36
ag37
ag38
ag39
ag40
ag41
ag42
ag43
ag44
ag45
ag46
ag47
ag48
ag49
ag50
ag51
ag52
ag53
ag54
ag55
ag56
atp531
bsg10
Nstp532
Rp533
a(dp534
g79
(dp535
g81
g515
sg82
(lp536
(dp537
g85
g86
(I0
I23
I1
tp538
Rp539
sg89
g519
sasstp540
bsg91
g92
sg10
g509
sbsS'LOWRY CHARLES P'
p541
g2
(g3
g4
Ntp542
Rp543
(dp544
g8
g9
sg11
g2
(g12
g4
Ntp545
Rp546
((lp547
g59
a(lp548
g20
(g21
(I0
tp549
g23
tp550
Rp551
(I1
(I23
tp552
g30
I00
(lp553
I0
aI0
aI0
aI0
ag106
aI372205
aI0
aI0
aI0
aI0
aI0
aI0
aI0
aI00
aI153686
aI-153686
aI0
aI0
aI0
aI0
aI372205
aI0
aI0
atp554
ba(lp555
g16
(g17
(dp556
g19
g20
(g21
(I0
tp557
g23
tp558
Rp559
(I1
(I23
tp560
g30
I00
(lp561
g34
ag35
ag36
ag37
ag38
ag39
ag40
ag41
ag42
ag43
ag44
ag45
ag46
ag47
ag48
ag49
ag50
ag51
ag52
ag53
ag54
ag55
ag56
atp562
bsg10
Nstp563
Rp564
a(dp565
g79
(dp566
g81
g547
sg82
(lp567
(dp568
g85
g86
(I0
I23
I1
tp569
Rp570
sg89
g551
sasstp571
bsg91
g92
sg10
g541
sbsS'COLWELL WESLEY'
p572
g2
(g3
g4
Ntp573
Rp574
(dp575
g8
g9
sg11
g2
(g12
g4
Ntp576
Rp577
((lp578
g59
a(lp579
g20
(g21
(I0
tp580
g23
tp581
Rp582
(I1
(I23
tp583
g30
I00
(lp584
I1200000
aI27610
aI-144062
aI0
aS'wes.colwell@enron.com'
p585
aI0
aI16514
aI40
aI240
aI11
aI0
aI0
aI101740
aI01
aI698242
aI0
aI288542
aI1132
aI1758
aI1490344
aI698242
aI2
aI251
atp586
ba(lp587
g16
(g17
(dp588
g19
g20
(g21
(I0
tp589
g23
tp590
Rp591
(I1
(I23
tp592
g30
I00
(lp593
g34
ag35
ag36
ag37
ag38
ag39
ag40
ag41
ag42
ag43
ag44
ag45
ag46
ag47
ag48
ag49
ag50
ag51
ag52
ag53
ag54
ag55
ag56
atp594
bsg10
Nstp595
Rp596
a(dp597
g79
(dp598
g81
g578
sg82
(lp599
(dp600
g85
g86
(I0
I23
I1
tp601
Rp602
sg89
g582
sasstp603
bsg91
g92
sg10
g572
sbsS'MULLER MARK S'
p604
g2
(g3
g4
Ntp605
Rp606
(dp607
g8
g9
sg11
g2
(g12
g4
Ntp608
Rp609
((lp610
g59
a(lp611
g20
(g21
(I0
tp612
g23
tp613
Rp614
(I1
(I23
tp615
g30
I00
(lp616
I1100000
aI842924
aI-719000
aI0
aS's..muller@enron.com'
p617
aI1056320
aI0
aI16
aI12
aI0
aI0
aI1725545
aI947
aI00
aI360528
aI0
aI251654
aI114
aI136
aI3202070
aI1416848
aI2
aI12
atp618
ba(lp619
g16
(g17
(dp620
g19
g20
(g21
(I0
tp621
g23
tp622
Rp623
(I1
(I23
tp624
g30
I00
(lp625
g34
ag35
ag36
ag37
ag38
ag39
ag40
ag41
ag42
ag43
ag44
ag45
ag46
ag47
ag48
ag49
ag50
ag51
ag52
ag53
ag54
ag55
ag56
atp626
bsg10
Nstp627
Rp628
a(dp629
g79
(dp630
g81
g610
sg82
(lp631
(dp632
g85
g86
(I0
I23
I1
tp633
Rp634
sg89
g614
sasstp635
bsg91
g92
sg10
g604
sbsS'JACKSON CHARLENE R'
p636
g2
(g3
g4
Ntp637
Rp638
(dp639
g8
g9
sg11
g2
(g12
g4
Ntp640
Rp641
((lp642
g59
a(lp643
g20
(g21
(I0
tp644
g23
tp645
Rp646
(I1
(I23
tp647
g30
I00
(lp648
I250000
aI0
aI0
aI0
aS'charlene.jackson@enron.com'
p649
aI185063
aI10181
aI56
aI25
aI19
aI0
aI0
aI2435
aI00
aI540672
aI0
aI288558
aI117
aI258
aI551174
aI725735
aI0
aI44
atp650
ba(lp651
g16
(g17
(dp652
g19
g20
(g21
(I0
tp653
g23
tp654
Rp655
(I1
(I23
tp656
g30
I00
(lp657
g34
ag35
ag36
ag37
ag38
ag39
ag40
ag41
ag42
ag43
ag44
ag45
ag46
ag47
ag48
ag49
ag50
ag51
ag52
ag53
ag54
ag55
ag56
atp658
bsg10
Nstp659
Rp660
a(dp661
g79
(dp662
g81
g642
sg82
(lp663
(dp664
g85
g86
(I0
I23
I1
tp665
Rp666
sg89
g646
sasstp667
bsg91
g92
sg10
g636
sbsS'WESTFAHL RICHARD K'
p668
g2
(g3
g4
Ntp669
Rp670
(dp671
g8
g9
sg11
g2
(g12
g4
Ntp672
Rp673
((lp674
g59
a(lp675
g20
(g21
(I0
tp676
g23
tp677
Rp678
(I1
(I23
tp679
g30
I00
(lp680
I0
aI0
aI-10800
aI0
aS'dick.westfahl@enron.com'
p681
aI0
aI51870
aI0
aI0
aI0
aI0
aI256191
aI401130
aI00
aI384930
aI0
aI63744
aI0
aI0
aI762135
aI384930
aI1
aI0
atp682
ba(lp683
g16
(g17
(dp684
g19
g20
(g21
(I0
tp685
g23
tp686
Rp687
(I1
(I23
tp688
g30
I00
(lp689
g34
ag35
ag36
ag37
ag38
ag39
ag40
ag41
ag42
ag43
ag44
ag45
ag46
ag47
ag48
ag49
ag50
ag51
ag52
ag53
ag54
ag55
ag56
atp690
bsg10
Nstp691
Rp692
a(dp693
g79
(dp694
g81
g674
sg82
(lp695
(dp696
g85
g86
(I0
I23
I1
tp697
Rp698
sg89
g678
sasstp699
bsg91
g92
sg10
g668
sbsS'WALTERS GARETH W'
p700
g2
(g3
g4
Ntp701
Rp702
(dp703
g8
g9
sg11
g2
(g12
g4
Ntp704
Rp705
((lp706
g59
a(lp707
g20
(g21
(I0
tp708
g23
tp709
Rp710
(I1
(I23
tp711
g30
I00
(lp712
I0
aI53625
aI0
aI0
ag106
aI1030329
aI33785
aI0
aI0
aI0
aI0
aI0
aI0
aI00
aI0
aI0
aI0
aI0
aI0
aI87410
aI1030329
aI0
aI0
atp713
ba(lp714
g16
(g17
(dp715
g19
g20
(g21
(I0
tp716
g23
tp717
Rp718
(I1
(I23
tp719
g30
I00
(lp720
g34
ag35
ag36
ag37
ag38
ag39
ag40
ag41
ag42
ag43
ag44
ag45
ag46
ag47
ag48
ag49
ag50
ag51
ag52
ag53
ag54
ag55
ag56
atp721
bsg10
Nstp722
Rp723
a(dp724
g79
(dp725
g81
g706
sg82
(lp726
(dp727
g85
g86
(I0
I23
I1
tp728
Rp729
sg89
g710
sasstp730
bsg91
g92
sg10
g700
sbsS'WALLS JR ROBERT H'
p731
g2
(g3
g4
Ntp732
Rp733
(dp734
g8
g9
sg11
g2
(g12
g4
Ntp735
Rp736
((lp737
g59
a(lp738
g20
(g21
(I0
tp739
g23
tp740
Rp741
(I1
(I23
tp742
g30
I00
(lp743
I850000
aI0
aI0
aI0
aS'rob.walls@enron.com'
p744
aI4346544
aI50936
aI146
aI17
aI0
aI0
aI540751
aI2
aI00
aI1552453
aI0
aI357091
aI215
aI671
aI1798780
aI5898997
aI0
aI17
atp745
ba(lp746
g16
(g17
(dp747
g19
g20
(g21
(I0
tp748
g23
tp749
Rp750
(I1
(I23
tp751
g30
I00
(lp752
g34
ag35
ag36
ag37
ag38
ag39
ag40
ag41
ag42
ag43
ag44
ag45
ag46
ag47
ag48
ag49
ag50
ag51
ag52
ag53
ag54
ag55
ag56
atp753
bsg10
Nstp754
Rp755
a(dp756
g79
(dp757
g81
g737
sg82
(lp758
(dp759
g85
g86
(I0
I23
I1
tp760
Rp761
sg89
g741
sasstp762
bsg91
g92
sg10
g731
sbsS'KITCHEN LOUISE'
p763
g2
(g3
g4
Ntp764
Rp765
(dp766
g8
g9
sg11
g2
(g12
g4
Ntp767
Rp768
((lp769
g59
a(lp770
g20
(g21
(I0
tp771
g23
tp772
Rp773
(I1
(I23
tp774
g30
I00
(lp775
I3100000
aI0
aI0
aI0
aS'louise.kitchen@enron.com'
p776
aI81042
aI5774
aI1728
aI251
aI194
aI0
aI0
aI93925
aI00
aI466101
aI0
aI271442
aI3669
aI8305
aI3471141
aI547143
aI6
aI445
atp777
ba(lp778
g16
(g17
(dp779
g19
g20
(g21
(I0
tp780
g23
tp781
Rp782
(I1
(I23
tp783
g30
I00
(lp784
g34
ag35
ag36
ag37
ag38
ag39
ag40
ag41
ag42
ag43
ag44
ag45
ag46
ag47
ag48
ag49
ag50
ag51
ag52
ag53
ag54
ag55
ag56
atp785
bsg10
Nstp786
Rp787
a(dp788
g79
(dp789
g81
g769
sg82
(lp790
(dp791
g85
g86
(I0
I23
I1
tp792
Rp793
sg89
g773
sasstp794
bsg91
g92
sg10
g763
sbsS'CHAN RONNIE'
p795
g2
(g3
g4
Ntp796
Rp797
(dp798
g8
g9
sg11
g2
(g12
g4
Ntp799
Rp800
((lp801
g59
a(lp802
g20
(g21
(I0
tp803
g23
tp804
Rp805
(I1
(I23
tp806
g30
I00
(lp807
I0
aI0
aI-98784
aI98784
ag106
aI0
aI0
aI0
aI0
aI0
aI0
aI0
aI0
aI00
aI32460
aI-32460
aI0
aI0
aI0
aI0
aI0
aI0
aI0
atp808
ba(lp809
g16
(g17
(dp810
g19
g20
(g21
(I0
tp811
g23
tp812
Rp813
(I1
(I23
tp814
g30
I00
(lp815
g34
ag35
ag36
ag37
ag38
ag39
ag40
ag41
ag42
ag43
ag44
ag45
ag46
ag47
ag48
ag49
ag50
ag51
ag52
ag53
ag54
ag55
ag56
atp816
bsg10
Nstp817
Rp818
a(dp819
g79
(dp820
g81
g801
sg82
(lp821
(dp822
g85
g86
(I0
I23
I1
tp823
Rp824
sg89
g805
sasstp825
bsg91
g92
sg10
g795
sbsS'BELFER ROBERT'
p826
g2
(g3
g4
Ntp827
Rp828
(dp829
g8
g9
sg11
g2
(g12
g4
Ntp830
Rp831
((lp832
g59
a(lp833
g20
(g21
(I0
tp834
g23
tp835
Rp836
(I1
(I23
tp837
g30
I00
(lp838
I0
aI-102500
aI0
aI3285
ag106
aI3285
aI0
aI0
aI0
aI0
aI0
aI0
aI0
aI00
aI0
aI44093
aI0
aI0
aI0
aI102500
aI-44093
aI-3
aI0
atp839
ba(lp840
g16
(g17
(dp841
g19
g20
(g21
(I0
tp842
g23
tp843
Rp844
(I1
(I23
tp845
g30
I00
(lp846
g34
ag35
ag36
ag37
ag38
ag39
ag40
ag41
ag42
ag43
ag44
ag45
ag46
ag47
ag48
ag49
ag50
ag51
ag52
ag53
ag54
ag55
ag56
atp847
bsg10
Nstp848
Rp849
a(dp850
g79
(dp851
g81
g832
sg82
(lp852
(dp853
g85
g86
(I0
I23
I1
tp854
Rp855
sg89
g836
sasstp856
bsg91
g92
sg10
g826
sbsS'SHANKMAN JEFFREY A'
p857
g2
(g3
g4
Ntp858
Rp859
(dp860
g8
g9
sg11
g2
(g12
g4
Ntp861
Rp862
((lp863
g59
a(lp864
g20
(g21
(I0
tp865
g23
tp866
Rp867
(I1
(I23
tp868
g30
I00
(lp869
I2000000
aI0
aI0
aI0
aS'jeffrey.shankman@enron.com'
p870
aI1441898
aI178979
aI2681
aI94
aI83
aI0
aI554422
aI1191
aI00
aI630137
aI0
aI304110
aI1730
aI3221
aI3038702
aI2072035
aI1
aI177
atp871
ba(lp872
g16
(g17
(dp873
g19
g20
(g21
(I0
tp874
g23
tp875
Rp876
(I1
(I23
tp877
g30
I00
(lp878
g34
ag35
ag36
ag37
ag38
ag39
ag40
ag41
ag42
ag43
ag44
ag45
ag46
ag47
ag48
ag49
ag50
ag51
ag52
ag53
ag54
ag55
ag56
atp879
bsg10
Nstp880
Rp881
a(dp882
g79
(dp883
g81
g863
sg82
(lp884
(dp885
g85
g86
(I0
I23
I1
tp886
Rp887
sg89
g867
sasstp888
bsg91
g92
sg10
g857
sbsS'WODRASKA JOHN'
p889
g2
(g3
g4
Ntp890
Rp891
(dp892
g8
g9
sg11
g2
(g12
g4
Ntp893
Rp894
((lp895
g59
a(lp896
g20
(g21
(I0
tp897
g23
tp898
Rp899
(I1
(I23
tp900
g30
I00
(lp901
I0
aI0
aI0
aI0
aS'john.wodraska@enron.com'
p902
aI0
aI0
aI0
aI0
aI0
aI0
aI0
aI189583
aI00
aI0
aI0
aI0
aI0
aI0
aI189583
aI0
aI0
aI0
atp903
ba(lp904
g16
(g17
(dp905
g19
g20
(g21
(I0
tp906
g23
tp907
Rp908
(I1
(I23
tp909
g30
I00
(lp910
g34
ag35
ag36
ag37
ag38
ag39
ag40
ag41
ag42
ag43
ag44
ag45
ag46
ag47
ag48
ag49
ag50
ag51
ag52
ag53
ag54
ag55
ag56
atp911
bsg10
Nstp912
Rp913
a(dp914
g79
(dp915
g81
g895
sg82
(lp916
(dp917
g85
g86
(I0
I23
I1
tp918
Rp919
sg89
g899
sasstp920
bsg91
g92
sg10
g889
sbsS'BERGSIEKER RICHARD P'
p921
g2
(g3
g4
Ntp922
Rp923
(dp924
g8
g9
sg11
g2
(g12
g4
Ntp925
Rp926
((lp927
g59
a(lp928
g20
(g21
(I0
tp929
g23
tp930
Rp931
(I1
(I23
tp932
g30
I00
(lp933
I250000
aI0
aI-485813
aI0
aS'rick.bergsieker@enron.com'
p934
aI0
aI59175
aI59
aI4
aI0
aI0
aI180250
aI427316
aI00
aI659249
aI0
aI187922
aI233
aI383
aI618850
aI659249
aI0
aI4
atp935
ba(lp936
g16
(g17
(dp937
g19
g20
(g21
(I0
tp938
g23
tp939
Rp940
(I1
(I23
tp941
g30
I00
(lp942
g34
ag35
ag36
ag37
ag38
ag39
ag40
ag41
ag42
ag43
ag44
ag45
ag46
ag47
ag48
ag49
ag50
ag51
ag52
ag53
ag54
ag55
ag56
atp943
bsg10
Nstp944
Rp945
a(dp946
g79
(dp947
g81
g927
sg82
(lp948
(dp949
g85
g86
(I0
I23
I1
tp950
Rp951
sg89
g931
sasstp952
bsg91
g92
sg10
g921
sbsS'URQUHART JOHN A'
p953
g2
(g3
g4
Ntp954
Rp955
(dp956
g8
g9
sg11
g2
(g12
g4
Ntp957
Rp958
((lp959
g59
a(lp960
g20
(g21
(I0
tp961
g23
tp962
Rp963
(I1
(I23
tp964
g30
I00
(lp965
I0
aI0
aI-36666
aI36666
ag106
aI0
aI228656
aI0
aI0
aI0
aI0
aI0
aI0
aI00
aI0
aI0
aI0
aI0
aI0
aI228656
aI0
aI0
aI0
atp966
ba(lp967
g16
(g17
(dp968
g19
g20
(g21
(I0
tp969
g23
tp970
Rp971
(I1
(I23
tp972
g30
I00
(lp973
g34
ag35
ag36
ag37
ag38
ag39
ag40
ag41
ag42
ag43
ag44
ag45
ag46
ag47
ag48
ag49
ag50
ag51
ag52
ag53
ag54
ag55
ag56
atp974
bsg10
Nstp975
Rp976
a(dp977
g79
(dp978
g81
g959
sg82
(lp979
(dp980
g85
g86
(I0
I23
I1
tp981
Rp982
sg89
g963
sasstp983
bsg91
g92
sg10
g953
sbsS'BIBI PHILIPPE A'
p984
g2
(g3
g4
Ntp985
Rp986
(dp987
g8
g9
sg11
g2
(g12
g4
Ntp988
Rp989
((lp990
g59
a(lp991
g20
(g21
(I0
tp992
g23
tp993
Rp994
(I1
(I23
tp995
g30
I00
(lp996
I1000000
aI0
aI0
aI0
aS'philippe.bibi@enron.com'
p997
aI1465734
aI38559
aI40
aI23
aI8
aI0
aI369721
aI425688
aI00
aI378082
aI0
aI213625
aI1336
aI1607
aI2047593
aI1843816
aI1
aI31
atp998
ba(lp999
g16
(g17
(dp1000
g19
g20
(g21
(I0
tp1001
g23
tp1002
Rp1003
(I1
(I23
tp1004
g30
I00
(lp1005
g34
ag35
ag36
ag37
ag38
ag39
ag40
ag41
ag42
ag43
ag44
ag45
ag46
ag47
ag48
ag49
ag50
ag51
ag52
ag53
ag54
ag55
ag56
atp1006
bsg10
Nstp1007
Rp1008
a(dp1009
g79
(dp1010
g81
g990
sg82
(lp1011
(dp1012
g85
g86
(I0
I23
I1
tp1013
Rp1014
sg89
g994
sasstp1015
bsg91
g92
sg10
g984
sbsS'PIRO JIM'
p1016
g2
(g3
g4
Ntp1017
Rp1018
(dp1019
g8
g9
sg11
g2
(g12
g4
Ntp1020
Rp1021
((lp1022
g59
a(lp1023
g20
(g21
(I0
tp1024
g23
tp1025
Rp1026
(I1
(I23
tp1027
g30
I00
(lp1028
I0
aI0
aI0
aI0
aS'jim.piro@enron.com'
p1029
aI0
aI0
aI16
aI0
aI1
aI0
aI0
aI0
aI00
aI47304
aI0
aI0
aI3
aI58
aI0
aI47304
aI0
aI1
atp1030
ba(lp1031
g16
(g17
(dp1032
g19
g20
(g21
(I0
tp1033
g23
tp1034
Rp1035
(I1
(I23
tp1036
g30
I00
(lp1037
g34
ag35
ag36
ag37
ag38
ag39
ag40
ag41
ag42
ag43
ag44
ag45
ag46
ag47
ag48
ag49
ag50
ag51
ag52
ag53
ag54
ag55
ag56
atp1038
bsg10
Nstp1039
Rp1040
a(dp1041
g79
(dp1042
g81
g1022
sg82
(lp1043
(dp1044
g85
g86
(I0
I23
I1
tp1045
Rp1046
sg89
g1026
sasstp1047
bsg91
g92
sg10
g1016
sbsS'RIEKER PAULA H'
p1048
g2
(g3
g4
Ntp1049
Rp1050
(dp1051
g8
g9
sg11
g2
(g12
g4
Ntp1052
Rp1053
((lp1054
g59
a(lp1055
g20
(g21
(I0
tp1056
g23
tp1057
Rp1058
(I1
(I23
tp1059
g30
I00
(lp1060
I700000
aI214678
aI-100000
aI0
aS'paula.rieker@enron.com'
p1061
aI1635238
aI33271
aI82
aI35
aI48
aI0
aI0
aI1950
aI01
aI283649
aI0
aI249201
aI1258
aI1328
aI1099100
aI1918887
aI0
aI83
atp1062
ba(lp1063
g16
(g17
(dp1064
g19
g20
(g21
(I0
tp1065
g23
tp1066
Rp1067
(I1
(I23
tp1068
g30
I00
(lp1069
g34
ag35
ag36
ag37
ag38
ag39
ag40
ag41
ag42
ag43
ag44
ag45
ag46
ag47
ag48
ag49
ag50
ag51
ag52
ag53
ag54
ag55
ag56
atp1070
bsg10
Nstp1071
Rp1072
a(dp1073
g79
(dp1074
g81
g1054
sg82
(lp1075
(dp1076
g85
g86
(I0
I23
I1
tp1077
Rp1078
sg89
g1058
sasstp1079
bsg91
g92
sg10
g1048
sbsS'WHALEY DAVID A'
p1080
g2
(g3
g4
Ntp1081
Rp1082
(dp1083
g8
g9
sg11
g2
(g12
g4
Ntp1084
Rp1085
((lp1086
g59
a(lp1087
g20
(g21
(I0
tp1088
g23
tp1089
Rp1090
(I1
(I23
tp1091
g30
I00
(lp1092
I0
aI0
aI0
aI0
ag106
aI98718
aI0
aI0
aI0
aI0
aI0
aI0
aI0
aI00
aI0
aI0
aI0
aI0
aI0
aI0
aI98718
aI0
aI0
atp1093
ba(lp1094
g16
(g17
(dp1095
g19
g20
(g21
(I0
tp1096
g23
tp1097
Rp1098
(I1
(I23
tp1099
g30
I00
(lp1100
g34
ag35
ag36
ag37
ag38
ag39
ag40
ag41
ag42
ag43
ag44
ag45
ag46
ag47
ag48
ag49
ag50
ag51
ag52
ag53
ag54
ag55
ag56
atp1101
bsg10
Nstp1102
Rp1103
a(dp1104
g79
(dp1105
g81
g1086
sg82
(lp1106
(dp1107
g85
g86
(I0
I23
I1
tp1108
Rp1109
sg89
g1090
sasstp1110
bsg91
g92
sg10
g1080
sbsS'BECK SALLY W'
p1111
g2
(g3
g4
Ntp1112
Rp1113
(dp1114
g8
g9
sg11
g2
(g12
g4
Ntp1115
Rp1116
((lp1117
g59
a(lp1118
g20
(g21
(I0
tp1119
g23
tp1120
Rp1121
(I1
(I23
tp1122
g30
I00
(lp1123
I700000
aI0
aI0
aI0
aS'sally.beck@enron.com'
p1124
aI0
aI37172
aI4343
aI144
aI386
aI0
aI0
aI566
aI00
aI126027
aI0
aI231330
aI2639
aI7315
aI969068
aI126027
aI7
aI530
atp1125
ba(lp1126
g16
(g17
(dp1127
g19
g20
(g21
(I0
tp1128
g23
tp1129
Rp1130
(I1
(I23
tp1131
g30
I00
(lp1132
g34
ag35
ag36
ag37
ag38
ag39
ag40
ag41
ag42
ag43
ag44
ag45
ag46
ag47
ag48
ag49
ag50
ag51
ag52
ag53
ag54
ag55
ag56
atp1133
bsg10
Nstp1134
Rp1135
a(dp1136
g79
(dp1137
g81
g1117
sg82
(lp1138
(dp1139
g85
g86
(I0
I23
I1
tp1140
Rp1141
sg89
g1121
sasstp1142
bsg91
g92
sg10
g1111
sbsS'HAUG DAVID L'
p1143
g2
(g3
g4
Ntp1144
Rp1145
(dp1146
g8
g9
sg11
g2
(g12
g4
Ntp1147
Rp1148
((lp1149
g59
a(lp1150
g20
(g21
(I0
tp1151
g23
tp1152
Rp1153
(I1
(I23
tp1154
g30
I00
(lp1155
I0
aI0
aI0
aI0
aS'david.haug@enron.com'
p1156
aI0
aI475
aI19
aI4
aI7
aI0
aI0
aI0
aI00
aI2217299
aI0
aI0
aI471
aI573
aI475
aI2217299
aI0
aI11
atp1157
ba(lp1158
g16
(g17
(dp1159
g19
g20
(g21
(I0
tp1160
g23
tp1161
Rp1162
(I1
(I23
tp1163
g30
I00
(lp1164
g34
ag35
ag36
ag37
ag38
ag39
ag40
ag41
ag42
ag43
ag44
ag45
ag46
ag47
ag48
ag49
ag50
ag51
ag52
ag53
ag54
ag55
ag56
atp1165
bsg10
Nstp1166
Rp1167
a(dp1168
g79
(dp1169
g81
g1149
sg82
(lp1170
(dp1171
g85
g86
(I0
I23
I1
tp1172
Rp1173
sg89
g1153
sasstp1174
bsg91
g92
sg10
g1143
sbsS'ECHOLS JOHN B'
p1175
g2
(g3
g4
Ntp1176
Rp1177
(dp1178
g8
g9
sg11
g2
(g12
g4
Ntp1179
Rp1180
((lp1181
g59
a(lp1182
g20
(g21
(I0
tp1183
g23
tp1184
Rp1185
(I1
(I23
tp1186
g30
I00
(lp1187
I200000
aI0
aI0
aI0
aS'john.echols@enron.com'
p1188
aI601438
aI21530
aI0
aI0
aI0
aI0
aI2234774
aI53775
aI00
aI407503
aI0
aI182245
aI0
aI0
aI2692324
aI1008941
aI2
aI0
atp1189
ba(lp1190
g16
(g17
(dp1191
g19
g20
(g21
(I0
tp1192
g23
tp1193
Rp1194
(I1
(I23
tp1195
g30
I00
(lp1196
g34
ag35
ag36
ag37
ag38
ag39
ag40
ag41
ag42
ag43
ag44
ag45
ag46
ag47
ag48
ag49
ag50
ag51
ag52
ag53
ag54
ag55
ag56
atp1197
bsg10
Nstp1198
Rp1199
a(dp1200
g79
(dp1201
g81
g1181
sg82
(lp1202
(dp1203
g85
g86
(I0
I23
I1
tp1204
Rp1205
sg89
g1185
sasstp1206
bsg91
g92
sg10
g1175
sbsS'MENDELSOHN JOHN'
p1207
g2
(g3
g4
Ntp1208
Rp1209
(dp1210
g8
g9
sg11
g2
(g12
g4
Ntp1211
Rp1212
((lp1213
g59
a(lp1214
g20
(g21
(I0
tp1215
g23
tp1216
Rp1217
(I1
(I23
tp1218
g30
I00
(lp1219
I0
aI0
aI-103750
aI103750
ag106
aI0
aI148
aI0
aI0
aI0
aI0
aI0
aI0
aI00
aI0
aI0
aI0
aI0
aI0
aI148
aI0
aI0
aI0
atp1220
ba(lp1221
g16
(g17
(dp1222
g19
g20
(g21
(I0
tp1223
g23
tp1224
Rp1225
(I1
(I23
tp1226
g30
I00
(lp1227
g34
ag35
ag36
ag37
ag38
ag39
ag40
ag41
ag42
ag43
ag44
ag45
ag46
ag47
ag48
ag49
ag50
ag51
ag52
ag53
ag54
ag55
ag56
atp1228
bsg10
Nstp1229
Rp1230
a(dp1231
g79
(dp1232
g81
g1213
sg82
(lp1233
(dp1234
g85
g86
(I0
I23
I1
tp1235
Rp1236
sg89
g1217
sasstp1237
bsg91
g92
sg10
g1207
sbsS'HICKERSON GARY J'
p1238
g2
(g3
g4
Ntp1239
Rp1240
(dp1241
g8
g9
sg11
g2
(g12
g4
Ntp1242
Rp1243
((lp1244
g59
a(lp1245
g20
(g21
(I0
tp1246
g23
tp1247
Rp1248
(I1
(I23
tp1249
g30
I00
(lp1250
I1700000
aI0
aI0
aI0
aS'gary.hickerson@enron.com'
p1251
aI0
aI98849
aI27
aI40
aI1
aI0
aI69223
aI1936
aI00
aI441096
aI0
aI211788
aI900
aI1320
aI2081796
aI441096
aI4
aI41
atp1252
ba(lp1253
g16
(g17
(dp1254
g19
g20
(g21
(I0
tp1255
g23
tp1256
Rp1257
(I1
(I23
tp1258
g30
I00
(lp1259
g34
ag35
ag36
ag37
ag38
ag39
ag40
ag41
ag42
ag43
ag44
ag45
ag46
ag47
ag48
ag49
ag50
ag51
ag52
ag53
ag54
ag55
ag56
atp1260
bsg10
Nstp1261
Rp1262
a(dp1263
g79
(dp1264
g81
g1244
sg82
(lp1265
(dp1266
g85
g86
(I0
I23
I1
tp1267
Rp1268
sg89
g1248
sasstp1269
bsg91
g92
sg10
g1238
sbsS'CLINE KENNETH W'
p1270
g2
(g3
g4
Ntp1271
Rp1272
(dp1273
g8
g9
sg11
g2
(g12
g4
Ntp1274
Rp1275
((lp1276
g59
a(lp1277
g20
(g21
(I0
tp1278
g23
tp1279
Rp1280
(I1
(I23
tp1281
g30
I00
(lp1282
I0
aI0
aI0
aI0
ag106
aI0
aI0
aI0
aI0
aI0
aI0
aI0
aI0
aI00
aI662086
aI-472568
aI0
aI0
aI0
aI0
aI189518
aI0
aI0
atp1283
ba(lp1284
g16
(g17
(dp1285
g19
g20
(g21
(I0
tp1286
g23
tp1287
Rp1288
(I1
(I23
tp1289
g30
I00
(lp1290
g34
ag35
ag36
ag37
ag38
ag39
ag40
ag41
ag42
ag43
ag44
ag45
ag46
ag47
ag48
ag49
ag50
ag51
ag52
ag53
ag54
ag55
ag56
atp1291
bsg10
Nstp1292
Rp1293
a(dp1294
g79
(dp1295
g81
g1276
sg82
(lp1296
(dp1297
g85
g86
(I0
I23
I1
tp1298
Rp1299
sg89
g1280
sasstp1300
bsg91
g92
sg10
g1270
sbsS'LEWIS RICHARD'
p1301
g2
(g3
g4
Ntp1302
Rp1303
(dp1304
g8
g9
sg11
g2
(g12
g4
Ntp1305
Rp1306
((lp1307
g59
a(lp1308
g20
(g21
(I0
tp1309
g23
tp1310
Rp1311
(I1
(I23
tp1312
g30
I00
(lp1313
I0
aI0
aI0
aI0
aS'richard.lewis@enron.com'
p1314
aI850477
aI0
aI26
aI10
aI0
aI0
aI0
aI0
aI00
aI0
aI0
aI0
aI739
aI952
aI0
aI850477
aI0
aI10
atp1315
ba(lp1316
g16
(g17
(dp1317
g19
g20
(g21
(I0
tp1318
g23
tp1319
Rp1320
(I1
(I23
tp1321
g30
I00
(lp1322
g34
ag35
ag36
ag37
ag38
ag39
ag40
ag41
ag42
ag43
ag44
ag45
ag46
ag47
ag48
ag49
ag50
ag51
ag52
ag53
ag54
ag55
ag56
atp1323
bsg10
Nstp1324
Rp1325
a(dp1326
g79
(dp1327
g81
g1307
sg82
(lp1328
(dp1329
g85
g86
(I0
I23
I1
tp1330
Rp1331
sg89
g1311
sasstp1332
bsg91
g92
sg10
g1301
sbsS'HAYES ROBERT E'
p1333
g2
(g3
g4
Ntp1334
Rp1335
(dp1336
g8
g9
sg11
g2
(g12
g4
Ntp1337
Rp1338
((lp1339
g59
a(lp1340
g20
(g21
(I0
tp1341
g23
tp1342
Rp1343
(I1
(I23
tp1344
g30
I00
(lp1345
I0
aI7961
aI0
aI0
aS'robert.hayes@enron.com'
p1346
aI0
aI0
aI12
aI16
aI0
aI0
aI0
aI0
aI00
aI151418
aI0
aI0
aI50
aI504
aI7961
aI151418
aI0
aI16
atp1347
ba(lp1348
g16
(g17
(dp1349
g19
g20
(g21
(I0
tp1350
g23
tp1351
Rp1352
(I1
(I23
tp1353
g30
I00
(lp1354
g34
ag35
ag36
ag37
ag38
ag39
ag40
ag41
ag42
ag43
ag44
ag45
ag46
ag47
ag48
ag49
ag50
ag51
ag52
ag53
ag54
ag55
ag56
atp1355
bsg10
Nstp1356
Rp1357
a(dp1358
g79
(dp1359
g81
g1339
sg82
(lp1360
(dp1361
g85
g86
(I0
I23
I1
tp1362
Rp1363
sg89
g1343
sasstp1364
bsg91
g92
sg10
g1333
sbsS'KOPPER MICHAEL J'
p1365
g2
(g3
g4
Ntp1366
Rp1367
(dp1368
g8
g9
sg11
g2
(g12
g4
Ntp1369
Rp1370
((lp1371
g59
a(lp1372
g20
(g21
(I0
tp1373
g23
tp1374
Rp1375
(I1
(I23
tp1376
g30
I00
(lp1377
I800000
aI0
aI0
aI0
aS'michael.kopper@enron.com'
p1378
aI0
aI118134
aI0
aI0
aI0
aI0
aI602671
aI907502
aI01
aI985032
aI0
aI224305
aI0
aI0
aI2652612
aI985032
aI2
aI0
atp1379
ba(lp1380
g16
(g17
(dp1381
g19
g20
(g21
(I0
tp1382
g23
tp1383
Rp1384
(I1
(I23
tp1385
g30
I00
(lp1386
g34
ag35
ag36
ag37
ag38
ag39
ag40
ag41
ag42
ag43
ag44
ag45
ag46
ag47
ag48
ag49
ag50
ag51
ag52
ag53
ag54
ag55
ag56
atp1387
bsg10
Nstp1388
Rp1389
a(dp1390
g79
(dp1391
g81
g1371
sg82
(lp1392
(dp1393
g85
g86
(I0
I23
I1
tp1394
Rp1395
sg89
g1375
sasstp1396
bsg91
g92
sg10
g1365
sbsS'LEFF DANIEL P'
p1397
g2
(g3
g4
Ntp1398
Rp1399
(dp1400
g8
g9
sg11
g2
(g12
g4
Ntp1401
Rp1402
((lp1403
g59
a(lp1404
g20
(g21
(I0
tp1405
g23
tp1406
Rp1407
(I1
(I23
tp1408
g30
I00
(lp1409
I1000000
aI0
aI0
aI0
aS'dan.leff@enron.com'
p1410
aI0
aI0
aI63
aI67
aI14
aI0
aI1387399
aI3083
aI00
aI360528
aI0
aI273746
aI2672
aI2822
aI2664228
aI360528
aI7
aI81
atp1411
ba(lp1412
g16
(g17
(dp1413
g19
g20
(g21
(I0
tp1414
g23
tp1415
Rp1416
(I1
(I23
tp1417
g30
I00
(lp1418
g34
ag35
ag36
ag37
ag38
ag39
ag40
ag41
ag42
ag43
ag44
ag45
ag46
ag47
ag48
ag49
ag50
ag51
ag52
ag53
ag54
ag55
ag56
atp1419
bsg10
Nstp1420
Rp1421
a(dp1422
g79
(dp1423
g81
g1403
sg82
(lp1424
(dp1425
g85
g86
(I0
I23
I1
tp1426
Rp1427
sg89
g1407
sasstp1428
bsg91
g92
sg10
g1397
sbsS'LAVORATO JOHN J'
p1429
g2
(g3
g4
Ntp1430
Rp1431
(dp1432
g8
g9
sg11
g2
(g12
g4
Ntp1433
Rp1434
((lp1435
g59
a(lp1436
g20
(g21
(I0
tp1437
g23
tp1438
Rp1439
(I1
(I23
tp1440
g30
I00
(lp1441
I8000000
aI0
aI0
aI0
aS'john.lavorato@enron.com'
p1442
aI4158995
aI49537
aI2585
aI528
aI411
aI0
aI2035380
aI1552
aI00
aI1008149
aI0
aI339288
aI3962
aI7259
aI10425757
aI5167144
aI2
aI939
atp1443
ba(lp1444
g16
(g17
(dp1445
g19
g20
(g21
(I0
tp1446
g23
tp1447
Rp1448
(I1
(I23
tp1449
g30
I00
(lp1450
g34
ag35
ag36
ag37
ag38
ag39
ag40
ag41
ag42
ag43
ag44
ag45
ag46
ag47
ag48
ag49
ag50
ag51
ag52
ag53
ag54
ag55
ag56
atp1451
bsg10
Nstp1452
Rp1453
a(dp1454
g79
(dp1455
g81
g1435
sg82
(lp1456
(dp1457
g85
g86
(I0
I23
I1
tp1458
Rp1459
sg89
g1439
sasstp1460
bsg91
g92
sg10
g1429
sbsS'BERBERIAN DAVID'
p1461
g2
(g3
g4
Ntp1462
Rp1463
(dp1464
g8
g9
sg11
g2
(g12
g4
Ntp1465
Rp1466
((lp1467
g59
a(lp1468
g20
(g21
(I0
tp1469
g23
tp1470
Rp1471
(I1
(I23
tp1472
g30
I00
(lp1473
I0
aI0
aI0
aI0
aS'david.berberian@enron.com'
p1474
aI1624396
aI11892
aI0
aI0
aI0
aI0
aI0
aI0
aI00
aI869220
aI0
aI216582
aI0
aI0
aI228474
aI2493616
aI0
aI0
atp1475
ba(lp1476
g16
(g17
(dp1477
g19
g20
(g21
(I0
tp1478
g23
tp1479
Rp1480
(I1
(I23
tp1481
g30
I00
(lp1482
g34
ag35
ag36
ag37
ag38
ag39
ag40
ag41
ag42
ag43
ag44
ag45
ag46
ag47
ag48
ag49
ag50
ag51
ag52
ag53
ag54
ag55
ag56
atp1483
bsg10
Nstp1484
Rp1485
a(dp1486
g79
(dp1487
g81
g1467
sg82
(lp1488
(dp1489
g85
g86
(I0
I23
I1
tp1490
Rp1491
sg89
g1471
sasstp1492
bsg91
g92
sg10
g1461
sbsS'DETMERING TIMOTHY J'
p1493
g2
(g3
g4
Ntp1494
Rp1495
(dp1496
g8
g9
sg11
g2
(g12
g4
Ntp1497
Rp1498
((lp1499
g59
a(lp1500
g20
(g21
(I0
tp1501
g23
tp1502
Rp1503
(I1
(I23
tp1504
g30
I00
(lp1505
I425000
aI875307
aI-775241
aI0
aS'timothy.detmering@enron.com'
p1506
aI2027865
aI52255
aI0
aI0
aI0
aI0
aI415657
aI1105
aI00
aI315068
aI-315068
aI210500
aI0
aI0
aI1204583
aI2027865
aI0
aI0
atp1507
ba(lp1508
g16
(g17
(dp1509
g19
g20
(g21
(I0
tp1510
g23
tp1511
Rp1512
(I1
(I23
tp1513
g30
I00
(lp1514
g34
ag35
ag36
ag37
ag38
ag39
ag40
ag41
ag42
ag43
ag44
ag45
ag46
ag47
ag48
ag49
ag50
ag51
ag52
ag53
ag54
ag55
ag56
atp1515
bsg10
Nstp1516
Rp1517
a(dp1518
g79
(dp1519
g81
g1499
sg82
(lp1520
(dp1521
g85
g86
(I0
I23
I1
tp1522
Rp1523
sg89
g1503
sasstp1524
bsg91
g92
sg10
g1493
sbsS'WAKEHAM JOHN'
p1525
g2
(g3
g4
Ntp1526
Rp1527
(dp1528
g8
g9
sg11
g2
(g12
g4
Ntp1529
Rp1530
((lp1531
g59
a(lp1532
g20
(g21
(I0
tp1533
g23
tp1534
Rp1535
(I1
(I23
tp1536
g30
I00
(lp1537
I0
aI0
aI0
aI109298
ag106
aI0
aI103773
aI0
aI0
aI0
aI0
aI0
aI0
aI00
aI0
aI0
aI0
aI0
aI0
aI213071
aI0
aI0
aI0
atp1538
ba(lp1539
g16
(g17
(dp1540
g19
g20
(g21
(I0
tp1541
g23
tp1542
Rp1543
(I1
(I23
tp1544
g30
I00
(lp1545
g34
ag35
ag36
ag37
ag38
ag39
ag40
ag41
ag42
ag43
ag44
ag45
ag46
ag47
ag48
ag49
ag50
ag51
ag52
ag53
ag54
ag55
ag56
atp1546
bsg10
Nstp1547
Rp1548
a(dp1549
g79
(dp1550
g81
g1531
sg82
(lp1551
(dp1552
g85
g86
(I0
I23
I1
tp1553
Rp1554
sg89
g1535
sasstp1555
bsg91
g92
sg10
g1525
sbsS'POWERS WILLIAM'
p1556
g2
(g3
g4
Ntp1557
Rp1558
(dp1559
g8
g9
sg11
g2
(g12
g4
Ntp1560
Rp1561
((lp1562
g59
a(lp1563
g20
(g21
(I0
tp1564
g23
tp1565
Rp1566
(I1
(I23
tp1567
g30
I00
(lp1568
I0
aI0
aI-17500
aI17500
aS'ken.powers@enron.com'
p1569
aI0
aI0
aI26
aI0
aI0
aI0
aI0
aI0
aI00
aI0
aI0
aI0
aI12
aI653
aI0
aI0
aI0
aI0
atp1570
ba(lp1571
g16
(g17
(dp1572
g19
g20
(g21
(I0
tp1573
g23
tp1574
Rp1575
(I1
(I23
tp1576
g30
I00
(lp1577
g34
ag35
ag36
ag37
ag38
ag39
ag40
ag41
ag42
ag43
ag44
ag45
ag46
ag47
ag48
ag49
ag50
ag51
ag52
ag53
ag54
ag55
ag56
atp1578
bsg10
Nstp1579
Rp1580
a(dp1581
g79
(dp1582
g81
g1562
sg82
(lp1583
(dp1584
g85
g86
(I0
I23
I1
tp1585
Rp1586
sg89
g1566
sasstp1587
bsg91
g92
sg10
g1556
sbsS'GOLD JOSEPH'
p1588
g2
(g3
g4
Ntp1589
Rp1590
(dp1591
g8
g9
sg11
g2
(g12
g4
Ntp1592
Rp1593
((lp1594
g59
a(lp1595
g20
(g21
(I0
tp1596
g23
tp1597
Rp1598
(I1
(I23
tp1599
g30
I00
(lp1600
I750000
aI0
aI0
aI0
aS'joe.gold@enron.com'
p1601
aI436515
aI0
aI0
aI0
aI0
aI0
aI304805
aI819288
aI00
aI441096
aI0
aI272880
aI0
aI0
aI2146973
aI877611
aI2
aI0
atp1602
ba(lp1603
g16
(g17
(dp1604
g19
g20
(g21
(I0
tp1605
g23
tp1606
Rp1607
(I1
(I23
tp1608
g30
I00
(lp1609
g34
ag35
ag36
ag37
ag38
ag39
ag40
ag41
ag42
ag43
ag44
ag45
ag46
ag47
ag48
ag49
ag50
ag51
ag52
ag53
ag54
ag55
ag56
atp1610
bsg10
Nstp1611
Rp1612
a(dp1613
g79
(dp1614
g81
g1594
sg82
(lp1615
(dp1616
g85
g86
(I0
I23
I1
tp1617
Rp1618
sg89
g1598
sasstp1619
bsg91
g92
sg10
g1588
sbsS'BANNANTINE JAMES M'
p1620
g2
(g3
g4
Ntp1621
Rp1622
(dp1623
g8
g9
sg11
g2
(g12
g4
Ntp1624
Rp1625
((lp1626
g59
a(lp1627
g20
(g21
(I0
tp1628
g23
tp1629
Rp1630
(I1
(I23
tp1631
g30
I00
(lp1632
I0
aI0
aI-5104
aI0
aS'james.bannantine@enron.com'
p1633
aI4046157
aI56301
aI29
aI39
aI0
aI0
aI0
aI864523
aI00
aI1757552
aI-560222
aI477
aI465
aI566
aI916197
aI5243487
aI0
aI39
atp1634
ba(lp1635
g16
(g17
(dp1636
g19
g20
(g21
(I0
tp1637
g23
tp1638
Rp1639
(I1
(I23
tp1640
g30
I00
(lp1641
g34
ag35
ag36
ag37
ag38
ag39
ag40
ag41
ag42
ag43
ag44
ag45
ag46
ag47
ag48
ag49
ag50
ag51
ag52
ag53
ag54
ag55
ag56
atp1642
bsg10
Nstp1643
Rp1644
a(dp1645
g79
(dp1646
g81
g1626
sg82
(lp1647
(dp1648
g85
g86
(I0
I23
I1
tp1649
Rp1650
sg89
g1630
sasstp1651
bsg91
g92
sg10
g1620
sbsS'DUNCAN JOHN H'
p1652
g2
(g3
g4
Ntp1653
Rp1654
(dp1655
g8
g9
sg11
g2
(g12
g4
Ntp1656
Rp1657
((lp1658
g59
a(lp1659
g20
(g21
(I0
tp1660
g23
tp1661
Rp1662
(I1
(I23
tp1663
g30
I00
(lp1664
I0
aI0
aI-25000
aI102492
ag106
aI371750
aI0
aI0
aI0
aI0
aI0
aI0
aI0
aI00
aI0
aI0
aI0
aI0
aI0
aI77492
aI371750
aI0
aI0
atp1665
ba(lp1666
g16
(g17
(dp1667
g19
g20
(g21
(I0
tp1668
g23
tp1669
Rp1670
(I1
(I23
tp1671
g30
I00
(lp1672
g34
ag35
ag36
ag37
ag38
ag39
ag40
ag41
ag42
ag43
ag44
ag45
ag46
ag47
ag48
ag49
ag50
ag51
ag52
ag53
ag54
ag55
ag56
atp1673
bsg10
Nstp1674
Rp1675
a(dp1676
g79
(dp1677
g81
g1658
sg82
(lp1678
(dp1679
g85
g86
(I0
I23
I1
tp1680
Rp1681
sg89
g1662
sasstp1682
bsg91
g92
sg10
g1652
sbsS'SHAPIRO RICHARD S'
p1683
g2
(g3
g4
Ntp1684
Rp1685
(dp1686
g8
g9
sg11
g2
(g12
g4
Ntp1687
Rp1688
((lp1689
g59
a(lp1690
g20
(g21
(I0
tp1691
g23
tp1692
Rp1693
(I1
(I23
tp1694
g30
I00
(lp1695
I650000
aI0
aI0
aI0
aS'richard.shapiro@enron.com'
p1696
aI607837
aI137767
aI1215
aI74
aI65
aI0
aI0
aI705
aI00
aI379164
aI0
aI269076
aI4527
aI15149
aI1057548
aI987001
aI1
aI139
atp1697
ba(lp1698
g16
(g17
(dp1699
g19
g20
(g21
(I0
tp1700
g23
tp1701
Rp1702
(I1
(I23
tp1703
g30
I00
(lp1704
g34
ag35
ag36
ag37
ag38
ag39
ag40
ag41
ag42
ag43
ag44
ag45
ag46
ag47
ag48
ag49
ag50
ag51
ag52
ag53
ag54
ag55
ag56
atp1705
bsg10
Nstp1706
Rp1707
a(dp1708
g79
(dp1709
g81
g1689
sg82
(lp1710
(dp1711
g85
g86
(I0
I23
I1
tp1712
Rp1713
sg89
g1693
sasstp1714
bsg91
g92
sg10
g1683
sbsS'SHERRIFF JOHN R'
p1715
g2
(g3
g4
Ntp1716
Rp1717
(dp1718
g8
g9
sg11
g2
(g12
g4
Ntp1719
Rp1720
((lp1721
g59
a(lp1722
g20
(g21
(I0
tp1723
g23
tp1724
Rp1725
(I1
(I23
tp1726
g30
I00
(lp1727
I1500000
aI0
aI0
aI0
aS'john.sherriff@enron.com'
p1728
aI1835558
aI0
aI92
aI28
aI23
aI0
aI554422
aI1852186
aI00
aI1293424
aI0
aI428780
aI2103
aI3187
aI4335388
aI3128982
aI1
aI51
atp1729
ba(lp1730
g16
(g17
(dp1731
g19
g20
(g21
(I0
tp1732
g23
tp1733
Rp1734
(I1
(I23
tp1735
g30
I00
(lp1736
g34
ag35
ag36
ag37
ag38
ag39
ag40
ag41
ag42
ag43
ag44
ag45
ag46
ag47
ag48
ag49
ag50
ag51
ag52
ag53
ag54
ag55
ag56
atp1737
bsg10
Nstp1738
Rp1739
a(dp1740
g79
(dp1741
g81
g1721
sg82
(lp1742
(dp1743
g85
g86
(I0
I23
I1
tp1744
Rp1745
sg89
g1725
sasstp1746
bsg91
g92
sg10
g1715
sbsS'SHELBY REX'
p1747
g2
(g3
g4
Ntp1748
Rp1749
(dp1750
g8
g9
sg11
g2
(g12
g4
Ntp1751
Rp1752
((lp1753
g59
a(lp1754
g20
(g21
(I0
tp1755
g23
tp1756
Rp1757
(I1
(I23
tp1758
g30
I00
(lp1759
I200000
aI0
aI-4167
aI0
aS'rex.shelby@enron.com'
p1760
aI1624396
aI22884
aI39
aI13
aI14
aI0
aI0
aI1573324
aI01
aI869220
aI0
aI211844
aI91
aI225
aI2003885
aI2493616
aI0
aI27
atp1761
ba(lp1762
g16
(g17
(dp1763
g19
g20
(g21
(I0
tp1764
g23
tp1765
Rp1766
(I1
(I23
tp1767
g30
I00
(lp1768
g34
ag35
ag36
ag37
ag38
ag39
ag40
ag41
ag42
ag43
ag44
ag45
ag46
ag47
ag48
ag49
ag50
ag51
ag52
ag53
ag54
ag55
ag56
atp1769
bsg10
Nstp1770
Rp1771
a(dp1772
g79
(dp1773
g81
g1753
sg82
(lp1774
(dp1775
g85
g86
(I0
I23
I1
tp1776
Rp1777
sg89
g1757
sasstp1778
bsg91
g92
sg10
g1747
sbsS'LEMAISTRE CHARLES'
p1779
g2
(g3
g4
Ntp1780
Rp1781
(dp1782
g8
g9
sg11
g2
(g12
g4
Ntp1783
Rp1784
((lp1785
g59
a(lp1786
g20
(g21
(I0
tp1787
g23
tp1788
Rp1789
(I1
(I23
tp1790
g30
I00
(lp1791
I0
aI0
aI-25000
aI112492
ag106
aI412878
aI0
aI0
aI0
aI0
aI0
aI0
aI0
aI00
aI0
aI0
aI0
aI0
aI0
aI87492
aI412878
aI0
aI0
atp1792
ba(lp1793
g16
(g17
(dp1794
g19
g20
(g21
(I0
tp1795
g23
tp1796
Rp1797
(I1
(I23
tp1798
g30
I00
(lp1799
g34
ag35
ag36
ag37
ag38
ag39
ag40
ag41
ag42
ag43
ag44
ag45
ag46
ag47
ag48
ag49
ag50
ag51
ag52
ag53
ag54
ag55
ag56
atp1800
bsg10
Nstp1801
Rp1802
a(dp1803
g79
(dp1804
g81
g1785
sg82
(lp1805
(dp1806
g85
g86
(I0
I23
I1
tp1807
Rp1808
sg89
g1789
sasstp1809
bsg91
g92
sg10
g1779
sbsS'DEFFNER JOSEPH M'
p1810
g2
(g3
g4
Ntp1811
Rp1812
(dp1813
g8
g9
sg11
g2
(g12
g4
Ntp1814
Rp1815
((lp1816
g59
a(lp1817
g20
(g21
(I0
tp1818
g23
tp1819
Rp1820
(I1
(I23
tp1821
g30
I00
(lp1822
I600000
aI0
aI0
aI0
aS'joseph.deffner@enron.com'
p1823
aI17378
aI41626
aI74
aI115
aI4
aI0
aI335349
aI25553
aI00
aI141833
aI0
aI206121
aI552
aI714
aI1208649
aI159211
aI7
aI119
atp1824
ba(lp1825
g16
(g17
(dp1826
g19
g20
(g21
(I0
tp1827
g23
tp1828
Rp1829
(I1
(I23
tp1830
g30
I00
(lp1831
g34
ag35
ag36
ag37
ag38
ag39
ag40
ag41
ag42
ag43
ag44
ag45
ag46
ag47
ag48
ag49
ag50
ag51
ag52
ag53
ag54
ag55
ag56
atp1832
bsg10
Nstp1833
Rp1834
a(dp1835
g79
(dp1836
g81
g1816
sg82
(lp1837
(dp1838
g85
g86
(I0
I23
I1
tp1839
Rp1840
sg89
g1820
sasstp1841
bsg91
g92
sg10
g1810
sbsS'KISHKILL JOSEPH G'
p1842
g2
(g3
g4
Ntp1843
Rp1844
(dp1845
g8
g9
sg11
g2
(g12
g4
Ntp1846
Rp1847
((lp1848
g59
a(lp1849
g20
(g21
(I0
tp1850
g23
tp1851
Rp1852
(I1
(I23
tp1853
g30
I00
(lp1854
I0
aI0
aI-51042
aI0
aS'joe.kishkill@enron.com'
p1855
aI0
aI116335
aI0
aI0
aI0
aI0
aI0
aI465357
aI00
aI1034346
aI0
aI174246
aI0
aI0
aI704896
aI1034346
aI0
aI0
atp1856
ba(lp1857
g16
(g17
(dp1858
g19
g20
(g21
(I0
tp1859
g23
tp1860
Rp1861
(I1
(I23
tp1862
g30
I00
(lp1863
g34
ag35
ag36
ag37
ag38
ag39
ag40
ag41
ag42
ag43
ag44
ag45
ag46
ag47
ag48
ag49
ag50
ag51
ag52
ag53
ag54
ag55
ag56
atp1864
bsg10
Nstp1865
Rp1866
a(dp1867
g79
(dp1868
g81
g1848
sg82
(lp1869
(dp1870
g85
g86
(I0
I23
I1
tp1871
Rp1872
sg89
g1852
sasstp1873
bsg91
g92
sg10
g1842
sbsS'WHALLEY LAWRENCE G'
p1874
g2
(g3
g4
Ntp1875
Rp1876
(dp1877
g8
g9
sg11
g2
(g12
g4
Ntp1878
Rp1879
((lp1880
g59
a(lp1881
g20
(g21
(I0
tp1882
g23
tp1883
Rp1884
(I1
(I23
tp1885
g30
I00
(lp1886
I3000000
aI0
aI0
aI0
aS'greg.whalley@enron.com'
p1887
aI3282960
aI57838
aI556
aI186
aI24
aI0
aI808346
aI301026
aI00
aI2796177
aI0
aI510364
aI3920
aI6019
aI4677574
aI6079137
aI0
aI210
atp1888
ba(lp1889
g16
(g17
(dp1890
g19
g20
(g21
(I0
tp1891
g23
tp1892
Rp1893
(I1
(I23
tp1894
g30
I00
(lp1895
g34
ag35
ag36
ag37
ag38
ag39
ag40
ag41
ag42
ag43
ag44
ag45
ag46
ag47
ag48
ag49
ag50
ag51
ag52
ag53
ag54
ag55
ag56
atp1896
bsg10
Nstp1897
Rp1898
a(dp1899
g79
(dp1900
g81
g1880
sg82
(lp1901
(dp1902
g85
g86
(I0
I23
I1
tp1903
Rp1904
sg89
g1884
sasstp1905
bsg91
g92
sg10
g1874
sbsS'MCCARTY DANNY J'
p1906
g2
(g3
g4
Ntp1907
Rp1908
(dp1909
g8
g9
sg11
g2
(g12
g4
Ntp1910
Rp1911
((lp1912
g59
a(lp1913
g20
(g21
(I0
tp1914
g23
tp1915
Rp1916
(I1
(I23
tp1917
g30
I00
(lp1918
I0
aI0
aI0
aI0
aS'danny.mccarty@enron.com'
p1919
aI664375
aI0
aI215
aI25
aI2
aI0
aI0
aI0
aI00
aI94556
aI0
aI0
aI508
aI1433
aI0
aI758931
aI0
aI27
atp1920
ba(lp1921
g16
(g17
(dp1922
g19
g20
(g21
(I0
tp1923
g23
tp1924
Rp1925
(I1
(I23
tp1926
g30
I00
(lp1927
g34
ag35
ag36
ag37
ag38
ag39
ag40
ag41
ag42
ag43
ag44
ag45
ag46
ag47
ag48
ag49
ag50
ag51
ag52
ag53
ag54
ag55
ag56
atp1928
bsg10
Nstp1929
Rp1930
a(dp1931
g79
(dp1932
g81
g1912
sg82
(lp1933
(dp1934
g85
g86
(I0
I23
I1
tp1935
Rp1936
sg89
g1916
sasstp1937
bsg91
g92
sg10
g1906
sbsS'MCCONNELL MICHAEL S'
p1938
g2
(g3
g4
Ntp1939
Rp1940
(dp1941
g8
g9
sg11
g2
(g12
g4
Ntp1942
Rp1943
((lp1944
g59
a(lp1945
g20
(g21
(I0
tp1946
g23
tp1947
Rp1948
(I1
(I23
tp1949
g30
I00
(lp1950
I1100000
aI0
aI0
aI0
aS'mike.mcconnell@enron.com'
p1951
aI1623010
aI81364
aI2742
aI92
aI194
aI0
aI554422
aI540
aI00
aI1478269
aI0
aI365038
aI2189
aI3329
aI2101364
aI3101279
aI0
aI286
atp1952
ba(lp1953
g16
(g17
(dp1954
g19
g20
(g21
(I0
tp1955
g23
tp1956
Rp1957
(I1
(I23
tp1958
g30
I00
(lp1959
g34
ag35
ag36
ag37
ag38
ag39
ag40
ag41
ag42
ag43
ag44
ag45
ag46
ag47
ag48
ag49
ag50
ag51
ag52
ag53
ag54
ag55
ag56
atp1960
bsg10
Nstp1961
Rp1962
a(dp1963
g79
(dp1964
g81
g1944
sg82
(lp1965
(dp1966
g85
g86
(I0
I23
I1
tp1967
Rp1968
sg89
g1948
sasstp1969
bsg91
g92
sg10
g1938
sbsS'DELAINEY DAVID W'
p1970
g2
(g3
g4
Ntp1971
Rp1972
(dp1973
g8
g9
sg11
g2
(g12
g4
Ntp1974
Rp1975
((lp1976
g59
a(lp1977
g20
(g21
(I0
tp1978
g23
tp1979
Rp1980
(I1
(I23
tp1981
g30
I00
(lp1982
I3000000
aI0
aI0
aI0
aS'david.delainey@enron.com'
p1983
aI2291113
aI86174
aI3069
aI66
aI609
aI0
aI1294981
aI1661
aI01
aI1323148
aI0
aI365163
aI2097
aI3093
aI4747979
aI3614261
aI1
aI675
atp1984
ba(lp1985
g16
(g17
(dp1986
g19
g20
(g21
(I0
tp1987
g23
tp1988
Rp1989
(I1
(I23
tp1990
g30
I00
(lp1991
g34
ag35
ag36
ag37
ag38
ag39
ag40
ag41
ag42
ag43
ag44
ag45
ag46
ag47
ag48
ag49
ag50
ag51
ag52
ag53
ag54
ag55
ag56
atp1992
bsg10
Nstp1993
Rp1994
a(dp1995
g79
(dp1996
g81
g1976
sg82
(lp1997
(dp1998
g85
g86
(I0
I23
I1
tp1999
Rp2000
sg89
g1980
sasstp2001
bsg91
g92
sg10
g1970
sbsS'SULLIVAN-SHAKLOVITZ COLLEEN'
p2002
g2
(g3
g4
Ntp2003
Rp2004
(dp2005
g8
g9
sg11
g2
(g12
g4
Ntp2006
Rp2007
((lp2008
g59
a(lp2009
g20
(g21
(I0
tp2010
g23
tp2011
Rp2012
(I1
(I23
tp2013
g30
I00
(lp2014
I100000
aI181993
aI0
aI0
ag106
aI1362375
aI0
aI0
aI0
aI0
aI0
aI554422
aI162
aI00
aI0
aI0
aI162779
aI0
aI0
aI999356
aI1362375
aI0
aI0
atp2015
ba(lp2016
g16
(g17
(dp2017
g19
g20
(g21
(I0
tp2018
g23
tp2019
Rp2020
(I1
(I23
tp2021
g30
I00
(lp2022
g34
ag35
ag36
ag37
ag38
ag39
ag40
ag41
ag42
ag43
ag44
ag45
ag46
ag47
ag48
ag49
ag50
ag51
ag52
ag53
ag54
ag55
ag56
atp2023
bsg10
Nstp2024
Rp2025
a(dp2026
g79
(dp2027
g81
g2008
sg82
(lp2028
(dp2029
g85
g86
(I0
I23
I1
tp2030
Rp2031
sg89
g2012
sasstp2032
bsg91
g92
sg10
g2002
sbsS'WROBEL BRUCE'
p2033
g2
(g3
g4
Ntp2034
Rp2035
(dp2036
g8
g9
sg11
g2
(g12
g4
Ntp2037
Rp2038
((lp2039
g59
a(lp2040
g20
(g21
(I0
tp2041
g23
tp2042
Rp2043
(I1
(I23
tp2044
g30
I00
(lp2045
I0
aI0
aI0
aI0
ag106
aI139130
aI0
aI0
aI0
aI0
aI0
aI0
aI0
aI00
aI0
aI0
aI0
aI0
aI0
aI0
aI139130
aI0
aI0
atp2046
ba(lp2047
g16
(g17
(dp2048
g19
g20
(g21
(I0
tp2049
g23
tp2050
Rp2051
(I1
(I23
tp2052
g30
I00
(lp2053
g34
ag35
ag36
ag37
ag38
ag39
ag40
ag41
ag42
ag43
ag44
ag45
ag46
ag47
ag48
ag49
ag50
ag51
ag52
ag53
ag54
ag55
ag56
atp2054
bsg10
Nstp2055
Rp2056
a(dp2057
g79
(dp2058
g81
g2039
sg82
(lp2059
(dp2060
g85
g86
(I0
I23
I1
tp2061
Rp2062
sg89
g2043
sasstp2063
bsg91
g92
sg10
g2033
sbsS'LINDHOLM TOD A'
p2064
g2
(g3
g4
Ntp2065
Rp2066
(dp2067
g8
g9
sg11
g2
(g12
g4
Ntp2068
Rp2069
((lp2070
g59
a(lp2071
g20
(g21
(I0
tp2072
g23
tp2073
Rp2074
(I1
(I23
tp2075
g30
I00
(lp2076
I200000
aI204075
aI0
aI0
aS'tod.lindholm@enron.com'
p2077
aI2549361
aI57727
aI0
aI0
aI0
aI0
aI175000
aI2630
aI00
aI514847
aI0
aI236457
aI0
aI0
aI875889
aI3064208
aI0
aI0
atp2078
ba(lp2079
g16
(g17
(dp2080
g19
g20
(g21
(I0
tp2081
g23
tp2082
Rp2083
(I1
(I23
tp2084
g30
I00
(lp2085
g34
ag35
ag36
ag37
ag38
ag39
ag40
ag41
ag42
ag43
ag44
ag45
ag46
ag47
ag48
ag49
ag50
ag51
ag52
ag53
ag54
ag55
ag56
atp2086
bsg10
Nstp2087
Rp2088
a(dp2089
g79
(dp2090
g81
g2070
sg82
(lp2091
(dp2092
g85
g86
(I0
I23
I1
tp2093
Rp2094
sg89
g2074
sasstp2095
bsg91
g92
sg10
g2064
sbsS'MEYER JEROME J'
p2096
g2
(g3
g4
Ntp2097
Rp2098
(dp2099
g8
g9
sg11
g2
(g12
g4
Ntp2100
Rp2101
((lp2102
g59
a(lp2103
g20
(g21
(I0
tp2104
g23
tp2105
Rp2106
(I1
(I23
tp2107
g30
I00
(lp2108
I0
aI0
aI-38346
aI38346
ag106
aI0
aI2151
aI0
aI0
aI0
aI0
aI0
aI0
aI00
aI0
aI0
aI0
aI0
aI0
aI2151
aI0
aI0
aI0
atp2109
ba(lp2110
g16
(g17
(dp2111
g19
g20
(g21
(I0
tp2112
g23
tp2113
Rp2114
(I1
(I23
tp2115
g30
I00
(lp2116
g34
ag35
ag36
ag37
ag38
ag39
ag40
ag41
ag42
ag43
ag44
ag45
ag46
ag47
ag48
ag49
ag50
ag51
ag52
ag53
ag54
ag55
ag56
atp2117
bsg10
Nstp2118
Rp2119
a(dp2120
g79
(dp2121
g81
g2102
sg82
(lp2122
(dp2123
g85
g86
(I0
I23
I1
tp2124
Rp2125
sg89
g2106
sasstp2126
bsg91
g92
sg10
g2096
sbsS'LAY KENNETH L'
p2127
g2
(g3
g4
Ntp2128
Rp2129
(dp2130
g8
g9
sg11
g2
(g12
g4
Ntp2131
Rp2132
((lp2133
g59
a(lp2134
g20
(g21
(I0
tp2135
g23
tp2136
Rp2137
(I1
(I23
tp2138
g30
I00
(lp2139
I7000000
aI202911
aI-300000
aI0
aS'kenneth.lay@enron.com'
p2140
aI34348384
aI99832
aI36
aI123
aI16
aI81525000
aI3600000
aI10359729
aI01
aI14761694
aI0
aI1072321
aI2411
aI4273
aI103559793
aI49110078
aI2
aI139
atp2141
ba(lp2142
g16
(g17
(dp2143
g19
g20
(g21
(I0
tp2144
g23
tp2145
Rp2146
(I1
(I23
tp2147
g30
I00
(lp2148
g34
ag35
ag36
ag37
ag38
ag39
ag40
ag41
ag42
ag43
ag44
ag45
ag46
ag47
ag48
ag49
ag50
ag51
ag52
ag53
ag54
ag55
ag56
atp2149
bsg10
Nstp2150
Rp2151
a(dp2152
g79
(dp2153
g81
g2133
sg82
(lp2154
(dp2155
g85
g86
(I0
I23
I1
tp2156
Rp2157
sg89
g2137
sasstp2158
bsg91
g92
sg10
g2127
sbsS'BUTTS ROBERT H'
p2159
g2
(g3
g4
Ntp2160
Rp2161
(dp2162
g8
g9
sg11
g2
(g12
g4
Ntp2163
Rp2164
((lp2165
g59
a(lp2166
g20
(g21
(I0
tp2167
g23
tp2168
Rp2169
(I1
(I23
tp2170
g30
I00
(lp2171
I750000
aI0
aI-75000
aI0
aS'bob.butts@enron.com'
p2172
aI0
aI9410
aI0
aI0
aI0
aI0
aI175000
aI150656
aI00
aI417619
aI0
aI261516
aI0
aI0
aI1271582
aI417619
aI3
aI0
atp2173
ba(lp2174
g16
(g17
(dp2175
g19
g20
(g21
(I0
tp2176
g23
tp2177
Rp2178
(I1
(I23
tp2179
g30
I00
(lp2180
g34
ag35
ag36
ag37
ag38
ag39
ag40
ag41
ag42
ag43
ag44
ag45
ag46
ag47
ag48
ag49
ag50
ag51
ag52
ag53
ag54
ag55
ag56
atp2181
bsg10
Nstp2182
Rp2183
a(dp2184
g79
(dp2185
g81
g2165
sg82
(lp2186
(dp2187
g85
g86
(I0
I23
I1
tp2188
Rp2189
sg89
g2169
sasstp2190
bsg91
g92
sg10
g2159
sbsS'OLSON CINDY K'
p2191
g2
(g3
g4
Ntp2192
Rp2193
(dp2194
g8
g9
sg11
g2
(g12
g4
Ntp2195
Rp2196
((lp2197
g59
a(lp2198
g20
(g21
(I0
tp2199
g23
tp2200
Rp2201
(I1
(I23
tp2202
g30
I00
(lp2203
I750000
aI77716
aI0
aI0
aS'cindy.olson@enron.com'
p2204
aI1637034
aI63791
aI52
aI20
aI15
aI0
aI100000
aI972
aI00
aI969729
aI0
aI329078
aI856
aI1184
aI1321557
aI2606763
aI0
aI35
atp2205
ba(lp2206
g16
(g17
(dp2207
g19
g20
(g21
(I0
tp2208
g23
tp2209
Rp2210
(I1
(I23
tp2211
g30
I00
(lp2212
g34
ag35
ag36
ag37
ag38
ag39
ag40
ag41
ag42
ag43
ag44
ag45
ag46
ag47
ag48
ag49
ag50
ag51
ag52
ag53
ag54
ag55
ag56
atp2213
bsg10
Nstp2214
Rp2215
a(dp2216
g79
(dp2217
g81
g2197
sg82
(lp2218
(dp2219
g85
g86
(I0
I23
I1
tp2220
Rp2221
sg89
g2201
sasstp2222
bsg91
g92
sg10
g2191
sbsS'MCDONALD REBECCA'
p2223
g2
(g3
g4
Ntp2224
Rp2225
(dp2226
g8
g9
sg11
g2
(g12
g4
Ntp2227
Rp2228
((lp2229
g59
a(lp2230
g20
(g21
(I0
tp2231
g23
tp2232
Rp2233
(I1
(I23
tp2234
g30
I00
(lp2235
I0
aI0
aI0
aI0
aS'rebecca.mcdonald@enron.com'
p2236
aI757301
aI0
aI13
aI54
aI1
aI0
aI0
aI0
aI00
aI934065
aI0
aI0
aI720
aI894
aI0
aI1691366
aI0
aI55
atp2237
ba(lp2238
g16
(g17
(dp2239
g19
g20
(g21
(I0
tp2240
g23
tp2241
Rp2242
(I1
(I23
tp2243
g30
I00
(lp2244
g34
ag35
ag36
ag37
ag38
ag39
ag40
ag41
ag42
ag43
ag44
ag45
ag46
ag47
ag48
ag49
ag50
ag51
ag52
ag53
ag54
ag55
ag56
atp2245
bsg10
Nstp2246
Rp2247
a(dp2248
g79
(dp2249
g81
g2229
sg82
(lp2250
(dp2251
g85
g86
(I0
I23
I1
tp2252
Rp2253
sg89
g2233
sasstp2254
bsg91
g92
sg10
g2223
sbsS'CUMBERLAND MICHAEL S'
p2255
g2
(g3
g4
Ntp2256
Rp2257
(dp2258
g8
g9
sg11
g2
(g12
g4
Ntp2259
Rp2260
((lp2261
g59
a(lp2262
g20
(g21
(I0
tp2263
g23
tp2264
Rp2265
(I1
(I23
tp2266
g30
I00
(lp2267
I325000
aI0
aI0
aI0
ag106
aI0
aI22344
aI0
aI0
aI0
aI0
aI275000
aI713
aI00
aI207940
aI0
aI184899
aI0
aI0
aI807956
aI207940
aI3
aI0
atp2268
ba(lp2269
g16
(g17
(dp2270
g19
g20
(g21
(I0
tp2271
g23
tp2272
Rp2273
(I1
(I23
tp2274
g30
I00
(lp2275
g34
ag35
ag36
ag37
ag38
ag39
ag40
ag41
ag42
ag43
ag44
ag45
ag46
ag47
ag48
ag49
ag50
ag51
ag52
ag53
ag54
ag55
ag56
atp2276
bsg10
Nstp2277
Rp2278
a(dp2279
g79
(dp2280
g81
g2261
sg82
(lp2281
(dp2282
g85
g86
(I0
I23
I1
tp2283
Rp2284
sg89
g2265
sasstp2285
bsg91
g92
sg10
g2255
sbsS'GAHN ROBERT S'
p2286
g2
(g3
g4
Ntp2287
Rp2288
(dp2289
g8
g9
sg11
g2
(g12
g4
Ntp2290
Rp2291
((lp2292
g59
a(lp2293
g20
(g21
(I0
tp2294
g23
tp2295
Rp2296
(I1
(I23
tp2297
g30
I00
(lp2298
I509870
aI73122
aI-1042
aI0
ag106
aI83237
aI50080
aI0
aI0
aI0
aI0
aI0
aI76547
aI00
aI235370
aI0
aI192008
aI0
aI0
aI900585
aI318607
aI2
aI0
atp2299
ba(lp2300
g16
(g17
(dp2301
g19
g20
(g21
(I0
tp2302
g23
tp2303
Rp2304
(I1
(I23
tp2305
g30
I00
(lp2306
g34
ag35
ag36
ag37
ag38
ag39
ag40
ag41
ag42
ag43
ag44
ag45
ag46
ag47
ag48
ag49
ag50
ag51
ag52
ag53
ag54
ag55
ag56
atp2307
bsg10
Nstp2308
Rp2309
a(dp2310
g79
(dp2311
g81
g2292
sg82
(lp2312
(dp2313
g85
g86
(I0
I23
I1
tp2314
Rp2315
sg89
g2296
sasstp2316
bsg91
g92
sg10
g2286
sbsS'MCCLELLAN GEORGE'
p2317
g2
(g3
g4
Ntp2318
Rp2319
(dp2320
g8
g9
sg11
g2
(g12
g4
Ntp2321
Rp2322
((lp2323
g59
a(lp2324
g20
(g21
(I0
tp2325
g23
tp2326
Rp2327
(I1
(I23
tp2328
g30
I00
(lp2329
I900000
aI0
aI-125000
aI0
aS'george.mcclellan@enron.com'
p2330
aI506765
aI228763
aI49
aI52
aI0
aI0
aI0
aI51587
aI00
aI441096
aI0
aI263413
aI1469
aI1744
aI1318763
aI947861
aI1
aI52
atp2331
ba(lp2332
g16
(g17
(dp2333
g19
g20
(g21
(I0
tp2334
g23
tp2335
Rp2336
(I1
(I23
tp2337
g30
I00
(lp2338
g34
ag35
ag36
ag37
ag38
ag39
ag40
ag41
ag42
ag43
ag44
ag45
ag46
ag47
ag48
ag49
ag50
ag51
ag52
ag53
ag54
ag55
ag56
atp2339
bsg10
Nstp2340
Rp2341
a(dp2342
g79
(dp2343
g81
g2323
sg82
(lp2344
(dp2345
g85
g86
(I0
I23
I1
tp2346
Rp2347
sg89
g2327
sasstp2348
bsg91
g92
sg10
g2317
sbsS'HERMANN ROBERT J'
p2349
g2
(g3
g4
Ntp2350
Rp2351
(dp2352
g8
g9
sg11
g2
(g12
g4
Ntp2353
Rp2354
((lp2355
g59
a(lp2356
g20
(g21
(I0
tp2357
g23
tp2358
Rp2359
(I1
(I23
tp2360
g30
I00
(lp2361
I700000
aI0
aI-280000
aI0
aS'robert.hermann@enron.com'
p2362
aI187500
aI48357
aI0
aI0
aI0
aI0
aI150000
aI416441
aI00
aI480632
aI0
aI262663
aI0
aI0
aI1297461
aI668132
aI1
aI0
atp2363
ba(lp2364
g16
(g17
(dp2365
g19
g20
(g21
(I0
tp2366
g23
tp2367
Rp2368
(I1
(I23
tp2369
g30
I00
(lp2370
g34
ag35
ag36
ag37
ag38
ag39
ag40
ag41
ag42
ag43
ag44
ag45
ag46
ag47
ag48
ag49
ag50
ag51
ag52
ag53
ag54
ag55
ag56
atp2371
bsg10
Nstp2372
Rp2373
a(dp2374
g79
(dp2375
g81
g2355
sg82
(lp2376
(dp2377
g85
g86
(I0
I23
I1
tp2378
Rp2379
sg89
g2359
sasstp2380
bsg91
g92
sg10
g2349
sbsS'SCRIMSHAW MATTHEW'
p2381
g2
(g3
g4
Ntp2382
Rp2383
(dp2384
g8
g9
sg11
g2
(g12
g4
Ntp2385
Rp2386
((lp2387
g59
a(lp2388
g20
(g21
(I0
tp2389
g23
tp2390
Rp2391
(I1
(I23
tp2392
g30
I00
(lp2393
I0
aI0
aI0
aI0
aS'matthew.scrimshaw@enron.com'
p2394
aI759557
aI0
aI0
aI0
aI0
aI0
aI0
aI0
aI00
aI0
aI0
aI0
aI0
aI0
aI0
aI759557
aI0
aI0
atp2395
ba(lp2396
g16
(g17
(dp2397
g19
g20
(g21
(I0
tp2398
g23
tp2399
Rp2400
(I1
(I23
tp2401
g30
I00
(lp2402
g34
ag35
ag36
ag37
ag38
ag39
ag40
ag41
ag42
ag43
ag44
ag45
ag46
ag47
ag48
ag49
ag50
ag51
ag52
ag53
ag54
ag55
ag56
atp2403
bsg10
Nstp2404
Rp2405
a(dp2406
g79
(dp2407
g81
g2387
sg82
(lp2408
(dp2409
g85
g86
(I0
I23
I1
tp2410
Rp2411
sg89
g2391
sasstp2412
bsg91
g92
sg10
g2381
sbsS'GATHMANN WILLIAM D'
p2413
g2
(g3
g4
Ntp2414
Rp2415
(dp2416
g8
g9
sg11
g2
(g12
g4
Ntp2417
Rp2418
((lp2419
g59
a(lp2420
g20
(g21
(I0
tp2421
g23
tp2422
Rp2423
(I1
(I23
tp2424
g30
I00
(lp2425
I0
aI0
aI0
aI0
ag106
aI1753766
aI0
aI0
aI0
aI0
aI0
aI0
aI0
aI00
aI264013
aI-72419
aI0
aI0
aI0
aI0
aI1945360
aI0
aI0
atp2426
ba(lp2427
g16
(g17
(dp2428
g19
g20
(g21
(I0
tp2429
g23
tp2430
Rp2431
(I1
(I23
tp2432
g30
I00
(lp2433
g34
ag35
ag36
ag37
ag38
ag39
ag40
ag41
ag42
ag43
ag44
ag45
ag46
ag47
ag48
ag49
ag50
ag51
ag52
ag53
ag54
ag55
ag56
atp2434
bsg10
Nstp2435
Rp2436
a(dp2437
g79
(dp2438
g81
g2419
sg82
(lp2439
(dp2440
g85
g86
(I0
I23
I1
tp2441
Rp2442
sg89
g2423
sasstp2443
bsg91
g92
sg10
g2413
sbsS'HAEDICKE MARK E'
p2444
g2
(g3
g4
Ntp2445
Rp2446
(dp2447
g8
g9
sg11
g2
(g12
g4
Ntp2448
Rp2449
((lp2450
g59
a(lp2451
g20
(g21
(I0
tp2452
g23
tp2453
Rp2454
(I1
(I23
tp2455
g30
I00
(lp2456
I1150000
aI2157527
aI-934484
aI0
aS'mark.haedicke@enron.com'
p2457
aI608750
aI76169
aI1941
aI180
aI61
aI0
aI983346
aI52382
aI00
aI524169
aI-329825
aI374125
aI1847
aI4009
aI3859065
aI803094
aI4
aI241
atp2458
ba(lp2459
g16
(g17
(dp2460
g19
g20
(g21
(I0
tp2461
g23
tp2462
Rp2463
(I1
(I23
tp2464
g30
I00
(lp2465
g34
ag35
ag36
ag37
ag38
ag39
ag40
ag41
ag42
ag43
ag44
ag45
ag46
ag47
ag48
ag49
ag50
ag51
ag52
ag53
ag54
ag55
ag56
atp2466
bsg10
Nstp2467
Rp2468
a(dp2469
g79
(dp2470
g81
g2450
sg82
(lp2471
(dp2472
g85
g86
(I0
I23
I1
tp2473
Rp2474
sg89
g2454
sasstp2475
bsg91
g92
sg10
g2444
sbsS'BOWEN JR RAYMOND M'
p2476
g2
(g3
g4
Ntp2477
Rp2478
(dp2479
g8
g9
sg11
g2
(g12
g4
Ntp2480
Rp2481
((lp2482
g59
a(lp2483
g20
(g21
(I0
tp2484
g23
tp2485
Rp2486
(I1
(I23
tp2487
g30
I00
(lp2488
I1350000
aI0
aI-833
aI0
aS'raymond.bowen@enron.com'
p2489
aI0
aI65907
aI27
aI140
aI15
aI0
aI974293
aI1621
aI01
aI252055
aI0
aI278601
aI1593
aI1858
aI2669589
aI252055
aI10
aI155
atp2490
ba(lp2491
g16
(g17
(dp2492
g19
g20
(g21
(I0
tp2493
g23
tp2494
Rp2495
(I1
(I23
tp2496
g30
I00
(lp2497
g34
ag35
ag36
ag37
ag38
ag39
ag40
ag41
ag42
ag43
ag44
ag45
ag46
ag47
ag48
ag49
ag50
ag51
ag52
ag53
ag54
ag55
ag56
atp2498
bsg10
Nstp2499
Rp2500
a(dp2501
g79
(dp2502
g81
g2482
sg82
(lp2503
(dp2504
g85
g86
(I0
I23
I1
tp2505
Rp2506
sg89
g2486
sasstp2507
bsg91
g92
sg10
g2476
sbsS'GILLIS JOHN'
p2508
g2
(g3
g4
Ntp2509
Rp2510
(dp2511
g8
g9
sg11
g2
(g12
g4
Ntp2512
Rp2513
((lp2514
g59
a(lp2515
g20
(g21
(I0
tp2516
g23
tp2517
Rp2518
(I1
(I23
tp2519
g30
I00
(lp2520
I0
aI0
aI0
aI0
ag106
aI9803
aI0
aI0
aI0
aI0
aI0
aI0
aI0
aI00
aI75838
aI0
aI0
aI0
aI0
aI0
aI85641
aI0
aI0
atp2521
ba(lp2522
g16
(g17
(dp2523
g19
g20
(g21
(I0
tp2524
g23
tp2525
Rp2526
(I1
(I23
tp2527
g30
I00
(lp2528
g34
ag35
ag36
ag37
ag38
ag39
ag40
ag41
ag42
ag43
ag44
ag45
ag46
ag47
ag48
ag49
ag50
ag51
ag52
ag53
ag54
ag55
ag56
atp2529
bsg10
Nstp2530
Rp2531
a(dp2532
g79
(dp2533
g81
g2514
sg82
(lp2534
(dp2535
g85
g86
(I0
I23
I1
tp2536
Rp2537
sg89
g2518
sasstp2538
bsg91
g92
sg10
g2508
sbsS'FITZGERALD JAY L'
p2539
g2
(g3
g4
Ntp2540
Rp2541
(dp2542
g8
g9
sg11
g2
(g12
g4
Ntp2543
Rp2544
((lp2545
g59
a(lp2546
g20
(g21
(I0
tp2547
g23
tp2548
Rp2549
(I1
(I23
tp2550
g30
I00
(lp2551
I350000
aI0
aI0
aI0
aS'jay.fitzgerald@enron.com'
p2552
aI664461
aI23870
aI16
aI1
aI8
aI0
aI556416
aI285414
aI00
aI956775
aI0
aI199157
aI723
aI936
aI1414857
aI1621236
aI0
aI9
atp2553
ba(lp2554
g16
(g17
(dp2555
g19
g20
(g21
(I0
tp2556
g23
tp2557
Rp2558
(I1
(I23
tp2559
g30
I00
(lp2560
g34
ag35
ag36
ag37
ag38
ag39
ag40
ag41
ag42
ag43
ag44
ag45
ag46
ag47
ag48
ag49
ag50
ag51
ag52
ag53
ag54
ag55
ag56
atp2561
bsg10
Nstp2562
Rp2563
a(dp2564
g79
(dp2565
g81
g2545
sg82
(lp2566
(dp2567
g85
g86
(I0
I23
I1
tp2568
Rp2569
sg89
g2549
sasstp2570
bsg91
g92
sg10
g2539
sbsS'MORAN MICHAEL P'
p2571
g2
(g3
g4
Ntp2572
Rp2573
(dp2574
g8
g9
sg11
g2
(g12
g4
Ntp2575
Rp2576
((lp2577
g59
a(lp2578
g20
(g21
(I0
tp2579
g23
tp2580
Rp2581
(I1
(I23
tp2582
g30
I00
(lp2583
I0
aI0
aI0
aI0
aS'michael.moran@enron.com'
p2584
aI59539
aI0
aI19
aI0
aI0
aI0
aI0
aI0
aI00
aI161602
aI0
aI0
aI127
aI672
aI0
aI221141
aI0
aI0
atp2585
ba(lp2586
g16
(g17
(dp2587
g19
g20
(g21
(I0
tp2588
g23
tp2589
Rp2590
(I1
(I23
tp2591
g30
I00
(lp2592
g34
ag35
ag36
ag37
ag38
ag39
ag40
ag41
ag42
ag43
ag44
ag45
ag46
ag47
ag48
ag49
ag50
ag51
ag52
ag53
ag54
ag55
ag56
atp2593
bsg10
Nstp2594
Rp2595
a(dp2596
g79
(dp2597
g81
g2577
sg82
(lp2598
(dp2599
g85
g86
(I0
I23
I1
tp2600
Rp2601
sg89
g2581
sasstp2602
bsg91
g92
sg10
g2571
sbsS'REDMOND BRIAN L'
p2603
g2
(g3
g4
Ntp2604
Rp2605
(dp2606
g8
g9
sg11
g2
(g12
g4
Ntp2607
Rp2608
((lp2609
g59
a(lp2610
g20
(g21
(I0
tp2611
g23
tp2612
Rp2613
(I1
(I23
tp2614
g30
I00
(lp2615
I0
aI0
aI0
aI0
aS'brian.redmond@enron.com'
p2616
aI7509039
aI14689
aI221
aI204
aI49
aI0
aI0
aI0
aI00
aI381285
aI0
aI96840
aI1063
aI1671
aI111529
aI7890324
aI0
aI253
atp2617
ba(lp2618
g16
(g17
(dp2619
g19
g20
(g21
(I0
tp2620
g23
tp2621
Rp2622
(I1
(I23
tp2623
g30
I00
(lp2624
g34
ag35
ag36
ag37
ag38
ag39
ag40
ag41
ag42
ag43
ag44
ag45
ag46
ag47
ag48
ag49
ag50
ag51
ag52
ag53
ag54
ag55
ag56
atp2625
bsg10
Nstp2626
Rp2627
a(dp2628
g79
(dp2629
g81
g2609
sg82
(lp2630
(dp2631
g85
g86
(I0
I23
I1
tp2632
Rp2633
sg89
g2613
sasstp2634
bsg91
g92
sg10
g2603
sbsS'BAZELIDES PHILIP J'
p2635
g2
(g3
g4
Ntp2636
Rp2637
(dp2638
g8
g9
sg11
g2
(g12
g4
Ntp2639
Rp2640
((lp2641
g59
a(lp2642
g20
(g21
(I0
tp2643
g23
tp2644
Rp2645
(I1
(I23
tp2646
g30
I00
(lp2647
I0
aI684694
aI0
aI0
ag106
aI1599641
aI0
aI0
aI0
aI0
aI0
aI93750
aI874
aI00
aI0
aI0
aI80818
aI0
aI0
aI860136
aI1599641
aI0
aI0
atp2648
ba(lp2649
g16
(g17
(dp2650
g19
g20
(g21
(I0
tp2651
g23
tp2652
Rp2653
(I1
(I23
tp2654
g30
I00
(lp2655
g34
ag35
ag36
ag37
ag38
ag39
ag40
ag41
ag42
ag43
ag44
ag45
ag46
ag47
ag48
ag49
ag50
ag51
ag52
ag53
ag54
ag55
ag56
atp2656
bsg10
Nstp2657
Rp2658
a(dp2659
g79
(dp2660
g81
g2641
sg82
(lp2661
(dp2662
g85
g86
(I0
I23
I1
tp2663
Rp2664
sg89
g2645
sasstp2665
bsg91
g92
sg10
g2635
sbsS'BELDEN TIMOTHY N'
p2666
g2
(g3
g4
Ntp2667
Rp2668
(dp2669
g8
g9
sg11
g2
(g12
g4
Ntp2670
Rp2671
((lp2672
g59
a(lp2673
g20
(g21
(I0
tp2674
g23
tp2675
Rp2676
(I1
(I23
tp2677
g30
I00
(lp2678
I5249999
aI2144013
aI-2334434
aI0
aS'tim.belden@enron.com'
p2679
aI953136
aI17355
aI484
aI228
aI108
aI0
aI0
aI210698
aI01
aI157569
aI0
aI213999
aI5521
aI7991
aI5501630
aI1110705
aI4
aI336
atp2680
ba(lp2681
g16
(g17
(dp2682
g19
g20
(g21
(I0
tp2683
g23
tp2684
Rp2685
(I1
(I23
tp2686
g30
I00
(lp2687
g34
ag35
ag36
ag37
ag38
ag39
ag40
ag41
ag42
ag43
ag44
ag45
ag46
ag47
ag48
ag49
ag50
ag51
ag52
ag53
ag54
ag55
ag56
atp2688
bsg10
Nstp2689
Rp2690
a(dp2691
g79
(dp2692
g81
g2672
sg82
(lp2693
(dp2694
g85
g86
(I0
I23
I1
tp2695
Rp2696
sg89
g2676
sasstp2697
bsg91
g92
sg10
g2666
sbsS'DURAN WILLIAM D'
p2698
g2
(g3
g4
Ntp2699
Rp2700
(dp2701
g8
g9
sg11
g2
(g12
g4
Ntp2702
Rp2703
((lp2704
g59
a(lp2705
g20
(g21
(I0
tp2706
g23
tp2707
Rp2708
(I1
(I23
tp2709
g30
I00
(lp2710
I750000
aI0
aI0
aI0
aS'w.duran@enron.com'
p2711
aI1451869
aI25785
aI12
aI106
aI3
aI0
aI1105218
aI1568
aI00
aI189041
aI0
aI210692
aI599
aI904
aI2093263
aI1640910
aI1
aI109
atp2712
ba(lp2713
g16
(g17
(dp2714
g19
g20
(g21
(I0
tp2715
g23
tp2716
Rp2717
(I1
(I23
tp2718
g30
I00
(lp2719
g34
ag35
ag36
ag37
ag38
ag39
ag40
ag41
ag42
ag43
ag44
ag45
ag46
ag47
ag48
ag49
ag50
ag51
ag52
ag53
ag54
ag55
ag56
atp2720
bsg10
Nstp2721
Rp2722
a(dp2723
g79
(dp2724
g81
g2704
sg82
(lp2725
(dp2726
g85
g86
(I0
I23
I1
tp2727
Rp2728
sg89
g2708
sasstp2729
bsg91
g92
sg10
g2698
sbsS'THORN TERENCE H'
p2730
g2
(g3
g4
Ntp2731
Rp2732
(dp2733
g8
g9
sg11
g2
(g12
g4
Ntp2734
Rp2735
((lp2736
g59
a(lp2737
g20
(g21
(I0
tp2738
g23
tp2739
Rp2740
(I1
(I23
tp2741
g30
I00
(lp2742
I0
aI16586
aI0
aI0
aS'terence.thorn@enron.com'
p2743
aI4452476
aI46145
aI41
aI0
aI0
aI0
aI200000
aI426629
aI00
aI365320
aI0
aI222093
aI73
aI266
aI911453
aI4817796
aI0
aI0
atp2744
ba(lp2745
g16
(g17
(dp2746
g19
g20
(g21
(I0
tp2747
g23
tp2748
Rp2749
(I1
(I23
tp2750
g30
I00
(lp2751
g34
ag35
ag36
ag37
ag38
ag39
ag40
ag41
ag42
ag43
ag44
ag45
ag46
ag47
ag48
ag49
ag50
ag51
ag52
ag53
ag54
ag55
ag56
atp2752
bsg10
Nstp2753
Rp2754
a(dp2755
g79
(dp2756
g81
g2736
sg82
(lp2757
(dp2758
g85
g86
(I0
I23
I1
tp2759
Rp2760
sg89
g2740
sasstp2761
bsg91
g92
sg10
g2730
sbsS'FASTOW ANDREW S'
p2762
g2
(g3
g4
Ntp2763
Rp2764
(dp2765
g8
g9
sg11
g2
(g12
g4
Ntp2766
Rp2767
((lp2768
g59
a(lp2769
g20
(g21
(I0
tp2770
g23
tp2771
Rp2772
(I1
(I23
tp2773
g30
I00
(lp2774
I1300000
aI0
aI-1386055
aI0
aS'andrew.fastow@enron.com'
p2775
aI0
aI55921
aI0
aI0
aI0
aI0
aI1736055
aI277464
aI01
aI1794412
aI0
aI440698
aI0
aI0
aI2424083
aI1794412
aI1
aI0
atp2776
ba(lp2777
g16
(g17
(dp2778
g19
g20
(g21
(I0
tp2779
g23
tp2780
Rp2781
(I1
(I23
tp2782
g30
I00
(lp2783
g34
ag35
ag36
ag37
ag38
ag39
ag40
ag41
ag42
ag43
ag44
ag45
ag46
ag47
ag48
ag49
ag50
ag51
ag52
ag53
ag54
ag55
ag56
atp2784
bsg10
Nstp2785
Rp2786
a(dp2787
g79
(dp2788
g81
g2768
sg82
(lp2789
(dp2790
g85
g86
(I0
I23
I1
tp2791
Rp2792
sg89
g2772
sasstp2793
bsg91
g92
sg10
g2762
sbsS'FOY JOE'
p2794
g2
(g3
g4
Ntp2795
Rp2796
(dp2797
g8
g9
sg11
g2
(g12
g4
Ntp2798
Rp2799
((lp2800
g59
a(lp2801
g20
(g21
(I0
tp2802
g23
tp2803
Rp2804
(I1
(I23
tp2805
g30
I00
(lp2806
I0
aI181755
aI0
aI0
aS'tracy.foy@enron.com'
p2807
aI343434
aI0
aI13
aI0
aI0
aI0
aI0
aI0
aI00
aI0
aI0
aI0
aI2
aI57
aI181755
aI343434
aI0
aI0
atp2808
ba(lp2809
g16
(g17
(dp2810
g19
g20
(g21
(I0
tp2811
g23
tp2812
Rp2813
(I1
(I23
tp2814
g30
I00
(lp2815
g34
ag35
ag36
ag37
ag38
ag39
ag40
ag41
ag42
ag43
ag44
ag45
ag46
ag47
ag48
ag49
ag50
ag51
ag52
ag53
ag54
ag55
ag56
atp2816
bsg10
Nstp2817
Rp2818
a(dp2819
g79
(dp2820
g81
g2800
sg82
(lp2821
(dp2822
g85
g86
(I0
I23
I1
tp2823
Rp2824
sg89
g2804
sasstp2825
bsg91
g92
sg10
g2794
sbsS'CALGER CHRISTOPHER F'
p2826
g2
(g3
g4
Ntp2827
Rp2828
(dp2829
g8
g9
sg11
g2
(g12
g4
Ntp2830
Rp2831
((lp2832
g59
a(lp2833
g20
(g21
(I0
tp2834
g23
tp2835
Rp2836
(I1
(I23
tp2837
g30
I00
(lp2838
I1250000
aI0
aI-262500
aI0
aS'christopher.calger@enron.com'
p2839
aI0
aI35818
aI144
aI199
aI25
aI0
aI375304
aI486
aI01
aI126027
aI0
aI240189
aI2188
aI2598
aI1639297
aI126027
aI13
aI224
atp2840
ba(lp2841
g16
(g17
(dp2842
g19
g20
(g21
(I0
tp2843
g23
tp2844
Rp2845
(I1
(I23
tp2846
g30
I00
(lp2847
g34
ag35
ag36
ag37
ag38
ag39
ag40
ag41
ag42
ag43
ag44
ag45
ag46
ag47
ag48
ag49
ag50
ag51
ag52
ag53
ag54
ag55
ag56
atp2848
bsg10
Nstp2849
Rp2850
a(dp2851
g79
(dp2852
g81
g2832
sg82
(lp2853
(dp2854
g85
g86
(I0
I23
I1
tp2855
Rp2856
sg89
g2836
sasstp2857
bsg91
g92
sg10
g2826
sbsS'RICE KENNETH D'
p2858
g2
(g3
g4
Ntp2859
Rp2860
(dp2861
g8
g9
sg11
g2
(g12
g4
Ntp2862
Rp2863
((lp2864
g59
a(lp2865
g20
(g21
(I0
tp2866
g23
tp2867
Rp2868
(I1
(I23
tp2869
g30
I00
(lp2870
I1750000
aI0
aI-3504386
aI0
aS'ken.rice@enron.com'
p2871
aI19794175
aI46950
aI18
aI42
aI4
aI0
aI1617011
aI174839
aI01
aI2748364
aI0
aI420636
aI864
aI905
aI505050
aI22542539
aI0
aI46
atp2872
ba(lp2873
g16
(g17
(dp2874
g19
g20
(g21
(I0
tp2875
g23
tp2876
Rp2877
(I1
(I23
tp2878
g30
I00
(lp2879
g34
ag35
ag36
ag37
ag38
ag39
ag40
ag41
ag42
ag43
ag44
ag45
ag46
ag47
ag48
ag49
ag50
ag51
ag52
ag53
ag54
ag55
ag56
atp2880
bsg10
Nstp2881
Rp2882
a(dp2883
g79
(dp2884
g81
g2864
sg82
(lp2885
(dp2886
g85
g86
(I0
I23
I1
tp2887
Rp2888
sg89
g2868
sasstp2889
bsg91
g92
sg10
g2858
sbsS'KAMINSKI WINCENTY J'
p2890
g2
(g3
g4
Ntp2891
Rp2892
(dp2893
g8
g9
sg11
g2
(g12
g4
Ntp2894
Rp2895
((lp2896
g59
a(lp2897
g20
(g21
(I0
tp2898
g23
tp2899
Rp2900
(I1
(I23
tp2901
g30
I00
(lp2902
I400000
aI0
aI0
aI0
aS'vince.kaminski@enron.com'
p2903
aI850010
aI83585
aI14368
aI41
aI171
aI0
aI323466
aI4669
aI00
aI126027
aI0
aI275101
aI583
aI4607
aI1086821
aI976037
aI1
aI212
atp2904
ba(lp2905
g16
(g17
(dp2906
g19
g20
(g21
(I0
tp2907
g23
tp2908
Rp2909
(I1
(I23
tp2910
g30
I00
(lp2911
g34
ag35
ag36
ag37
ag38
ag39
ag40
ag41
ag42
ag43
ag44
ag45
ag46
ag47
ag48
ag49
ag50
ag51
ag52
ag53
ag54
ag55
ag56
atp2912
bsg10
Nstp2913
Rp2914
a(dp2915
g79
(dp2916
g81
g2896
sg82
(lp2917
(dp2918
g85
g86
(I0
I23
I1
tp2919
Rp2920
sg89
g2900
sasstp2921
bsg91
g92
sg10
g2890
sbsS'COX DAVID'
p2922
g2
(g3
g4
Ntp2923
Rp2924
(dp2925
g8
g9
sg11
g2
(g12
g4
Ntp2926
Rp2927
((lp2928
g59
a(lp2929
g20
(g21
(I0
tp2930
g23
tp2931
Rp2932
(I1
(I23
tp2933
g30
I00
(lp2934
I800000
aI0
aI-41250
aI0
aS'chip.cox@enron.com'
p2935
aI117551
aI27861
aI33
aI0
aI4
aI0
aI0
aI494
aI00
aI378082
aI0
aI314288
aI71
aI102
aI1101393
aI495633
aI2
aI4
atp2936
ba(lp2937
g16
(g17
(dp2938
g19
g20
(g21
(I0
tp2939
g23
tp2940
Rp2941
(I1
(I23
tp2942
g30
I00
(lp2943
g34
ag35
ag36
ag37
ag38
ag39
ag40
ag41
ag42
ag43
ag44
ag45
ag46
ag47
ag48
ag49
ag50
ag51
ag52
ag53
ag54
ag55
ag56
atp2944
bsg10
Nstp2945
Rp2946
a(dp2947
g79
(dp2948
g81
g2928
sg82
(lp2949
(dp2950
g85
g86
(I0
I23
I1
tp2951
Rp2952
sg89
g2932
sasstp2953
bsg91
g92
sg10
g2922
sbsS'OVERDYKE JR JERE C'
p2954
g2
(g3
g4
Ntp2955
Rp2956
(dp2957
g8
g9
sg11
g2
(g12
g4
Ntp2958
Rp2959
((lp2960
g59
a(lp2961
g20
(g21
(I0
tp2962
g23
tp2963
Rp2964
(I1
(I23
tp2965
g30
I00
(lp2966
I0
aI0
aI0
aI0
aS'jere.overdyke@enron.com'
p2967
aI5266578
aI18834
aI0
aI0
aI0
aI0
aI135836
aI176
aI00
aI2041016
aI0
aI94941
aI0
aI0
aI249787
aI7307594
aI0
aI0
atp2968
ba(lp2969
g16
(g17
(dp2970
g19
g20
(g21
(I0
tp2971
g23
tp2972
Rp2973
(I1
(I23
tp2974
g30
I00
(lp2975
g34
ag35
ag36
ag37
ag38
ag39
ag40
ag41
ag42
ag43
ag44
ag45
ag46
ag47
ag48
ag49
ag50
ag51
ag52
ag53
ag54
ag55
ag56
atp2976
bsg10
Nstp2977
Rp2978
a(dp2979
g79
(dp2980
g81
g2960
sg82
(lp2981
(dp2982
g85
g86
(I0
I23
I1
tp2983
Rp2984
sg89
g2964
sasstp2985
bsg91
g92
sg10
g2954
sbsS'PEREIRA PAULO V. FERRAZ'
p2986
g2
(g3
g4
Ntp2987
Rp2988
(dp2989
g8
g9
sg11
g2
(g12
g4
Ntp2990
Rp2991
((lp2992
g59
a(lp2993
g20
(g21
(I0
tp2994
g23
tp2995
Rp2996
(I1
(I23
tp2997
g30
I00
(lp2998
I0
aI0
aI-101250
aI101250
ag106
aI0
aI27942
aI0
aI0
aI0
aI0
aI0
aI0
aI00
aI0
aI0
aI0
aI0
aI0
aI27942
aI0
aI0
aI0
atp2999
ba(lp3000
g16
(g17
(dp3001
g19
g20
(g21
(I0
tp3002
g23
tp3003
Rp3004
(I1
(I23
tp3005
g30
I00
(lp3006
g34
ag35
ag36
ag37
ag38
ag39
ag40
ag41
ag42
ag43
ag44
ag45
ag46
ag47
ag48
ag49
ag50
ag51
ag52
ag53
ag54
ag55
ag56
atp3007
bsg10
Nstp3008
Rp3009
a(dp3010
g79
(dp3011
g81
g2992
sg82
(lp3012
(dp3013
g85
g86
(I0
I23
I1
tp3014
Rp3015
sg89
g2996
sasstp3016
bsg91
g92
sg10
g2986
sbsS'STABLER FRANK'
p3017
g2
(g3
g4
Ntp3018
Rp3019
(dp3020
g8
g9
sg11
g2
(g12
g4
Ntp3021
Rp3022
((lp3023
g59
a(lp3024
g20
(g21
(I0
tp3025
g23
tp3026
Rp3027
(I1
(I23
tp3028
g30
I00
(lp3029
I500000
aI0
aI0
aI0
aS'frank.stabler@enron.com'
p3030
aI0
aI16514
aI0
aI0
aI0
aI0
aI0
aI356071
aI00
aI511734
aI0
aI239502
aI0
aI0
aI1112087
aI511734
aI2
aI0
atp3031
ba(lp3032
g16
(g17
(dp3033
g19
g20
(g21
(I0
tp3034
g23
tp3035
Rp3036
(I1
(I23
tp3037
g30
I00
(lp3038
g34
ag35
ag36
ag37
ag38
ag39
ag40
ag41
ag42
ag43
ag44
ag45
ag46
ag47
ag48
ag49
ag50
ag51
ag52
ag53
ag54
ag55
ag56
atp3039
bsg10
Nstp3040
Rp3041
a(dp3042
g79
(dp3043
g81
g3023
sg82
(lp3044
(dp3045
g85
g86
(I0
I23
I1
tp3046
Rp3047
sg89
g3027
sasstp3048
bsg91
g92
sg10
g3017
sbsS'SKILLING JEFFREY K'
p3049
g2
(g3
g4
Ntp3050
Rp3051
(dp3052
g8
g9
sg11
g2
(g12
g4
Ntp3053
Rp3054
((lp3055
g59
a(lp3056
g20
(g21
(I0
tp3057
g23
tp3058
Rp3059
(I1
(I23
tp3060
g30
I00
(lp3061
I5600000
aI0
aI0
aI0
aS'jeff.skilling@enron.com'
p3062
aI19250000
aI29336
aI108
aI88
aI30
aI0
aI1920000
aI22122
aI01
aI6843672
aI0
aI1111258
aI2042
aI3627
aI8682716
aI26093672
aI0
aI118
atp3063
ba(lp3064
g16
(g17
(dp3065
g19
g20
(g21
(I0
tp3066
g23
tp3067
Rp3068
(I1
(I23
tp3069
g30
I00
(lp3070
g34
ag35
ag36
ag37
ag38
ag39
ag40
ag41
ag42
ag43
ag44
ag45
ag46
ag47
ag48
ag49
ag50
ag51
ag52
ag53
ag54
ag55
ag56
atp3071
bsg10
Nstp3072
Rp3073
a(dp3074
g79
(dp3075
g81
g3055
sg82
(lp3076
(dp3077
g85
g86
(I0
I23
I1
tp3078
Rp3079
sg89
g3059
sasstp3080
bsg91
g92
sg10
g3049
sbsS'BLAKE JR. NORMAN P'
p3081
g2
(g3
g4
Ntp3082
Rp3083
(dp3084
g8
g9
sg11
g2
(g12
g4
Ntp3085
Rp3086
((lp3087
g59
a(lp3088
g20
(g21
(I0
tp3089
g23
tp3090
Rp3091
(I1
(I23
tp3092
g30
I00
(lp3093
I0
aI0
aI-113784
aI113784
ag106
aI0
aI1279
aI0
aI0
aI0
aI0
aI0
aI0
aI00
aI0
aI0
aI0
aI0
aI0
aI1279
aI0
aI0
aI0
atp3094
ba(lp3095
g16
(g17
(dp3096
g19
g20
(g21
(I0
tp3097
g23
tp3098
Rp3099
(I1
(I23
tp3100
g30
I00
(lp3101
g34
ag35
ag36
ag37
ag38
ag39
ag40
ag41
ag42
ag43
ag44
ag45
ag46
ag47
ag48
ag49
ag50
ag51
ag52
ag53
ag54
ag55
ag56
atp3102
bsg10
Nstp3103
Rp3104
a(dp3105
g79
(dp3106
g81
g3087
sg82
(lp3107
(dp3108
g85
g86
(I0
I23
I1
tp3109
Rp3110
sg89
g3091
sasstp3111
bsg91
g92
sg10
g3081
sbsS'SHERRICK JEFFREY B'
p3112
g2
(g3
g4
Ntp3113
Rp3114
(dp3115
g8
g9
sg11
g2
(g12
g4
Ntp3116
Rp3117
((lp3118
g59
a(lp3119
g20
(g21
(I0
tp3120
g23
tp3121
Rp3122
(I1
(I23
tp3123
g30
I00
(lp3124
I0
aI0
aI0
aI0
aS'jeffrey.sherrick@enron.com'
p3125
aI1426469
aI0
aI25
aI39
aI18
aI0
aI0
aI0
aI00
aI405999
aI0
aI0
aI583
aI613
aI0
aI1832468
aI0
aI57
atp3126
ba(lp3127
g16
(g17
(dp3128
g19
g20
(g21
(I0
tp3129
g23
tp3130
Rp3131
(I1
(I23
tp3132
g30
I00
(lp3133
g34
ag35
ag36
ag37
ag38
ag39
ag40
ag41
ag42
ag43
ag44
ag45
ag46
ag47
ag48
ag49
ag50
ag51
ag52
ag53
ag54
ag55
ag56
atp3134
bsg10
Nstp3135
Rp3136
a(dp3137
g79
(dp3138
g81
g3118
sg82
(lp3139
(dp3140
g85
g86
(I0
I23
I1
tp3141
Rp3142
sg89
g3122
sasstp3143
bsg91
g92
sg10
g3112
sbsS'PRENTICE JAMES'
p3144
g2
(g3
g4
Ntp3145
Rp3146
(dp3147
g8
g9
sg11
g2
(g12
g4
Ntp3148
Rp3149
((lp3150
g59
a(lp3151
g20
(g21
(I0
tp3152
g23
tp3153
Rp3154
(I1
(I23
tp3155
g30
I00
(lp3156
I0
aI564348
aI0
aI0
aS'james.prentice@enron.com'
p3157
aI886231
aI0
aI0
aI0
aI0
aI0
aI0
aI0
aI00
aI208809
aI0
aI0
aI0
aI0
aI564348
aI1095040
aI0
aI0
atp3158
ba(lp3159
g16
(g17
(dp3160
g19
g20
(g21
(I0
tp3161
g23
tp3162
Rp3163
(I1
(I23
tp3164
g30
I00
(lp3165
g34
ag35
ag36
ag37
ag38
ag39
ag40
ag41
ag42
ag43
ag44
ag45
ag46
ag47
ag48
ag49
ag50
ag51
ag52
ag53
ag54
ag55
ag56
atp3166
bsg10
Nstp3167
Rp3168
a(dp3169
g79
(dp3170
g81
g3150
sg82
(lp3171
(dp3172
g85
g86
(I0
I23
I1
tp3173
Rp3174
sg89
g3154
sasstp3175
bsg91
g92
sg10
g3144
sbsS'GRAY RODNEY'
p3176
g2
(g3
g4
Ntp3177
Rp3178
(dp3179
g8
g9
sg11
g2
(g12
g4
Ntp3180
Rp3181
((lp3182
g59
a(lp3183
g20
(g21
(I0
tp3184
g23
tp3185
Rp3186
(I1
(I23
tp3187
g30
I00
(lp3188
I0
aI93585
aI0
aI0
ag106
aI0
aI0
aI0
aI0
aI0
aI0
aI365625
aI680833
aI00
aI0
aI0
aI6615
aI0
aI0
aI1146658
aI0
aI0
aI0
atp3189
ba(lp3190
g16
(g17
(dp3191
g19
g20
(g21
(I0
tp3192
g23
tp3193
Rp3194
(I1
(I23
tp3195
g30
I00
(lp3196
g34
ag35
ag36
ag37
ag38
ag39
ag40
ag41
ag42
ag43
ag44
ag45
ag46
ag47
ag48
ag49
ag50
ag51
ag52
ag53
ag54
ag55
ag56
atp3197
bsg10
Nstp3198
Rp3199
a(dp3200
g79
(dp3201
g81
g3182
sg82
(lp3202
(dp3203
g85
g86
(I0
I23
I1
tp3204
Rp3205
sg89
g3186
sasstp3206
bsg91
g92
sg10
g3176
sbsS'PICKERING MARK R'
p3207
g2
(g3
g4
Ntp3208
Rp3209
(dp3210
g8
g9
sg11
g2
(g12
g4
Ntp3211
Rp3212
((lp3213
g59
a(lp3214
g20
(g21
(I0
tp3215
g23
tp3216
Rp3217
(I1
(I23
tp3218
g30
I00
(lp3219
I300000
aI0
aI0
aI0
aS'mark.pickering@enron.com'
p3220
aI28798
aI31653
aI67
aI7
aI0
aI400000
aI0
aI0
aI00
aI0
aI0
aI655037
aI728
aI898
aI1386690
aI28798
aI48
aI7
atp3221
ba(lp3222
g16
(g17
(dp3223
g19
g20
(g21
(I0
tp3224
g23
tp3225
Rp3226
(I1
(I23
tp3227
g30
I00
(lp3228
g34
ag35
ag36
ag37
ag38
ag39
ag40
ag41
ag42
ag43
ag44
ag45
ag46
ag47
ag48
ag49
ag50
ag51
ag52
ag53
ag54
ag55
ag56
atp3229
bsg10
Nstp3230
Rp3231
a(dp3232
g79
(dp3233
g81
g3213
sg82
(lp3234
(dp3235
g85
g86
(I0
I23
I1
tp3236
Rp3237
sg89
g3217
sasstp3238
bsg91
g92
sg10
g3207
sbsS'NOLES JAMES L'
p3239
g2
(g3
g4
Ntp3240
Rp3241
(dp3242
g8
g9
sg11
g2
(g12
g4
Ntp3243
Rp3244
((lp3245
g59
a(lp3246
g20
(g21
(I0
tp3247
g23
tp3248
Rp3249
(I1
(I23
tp3250
g30
I00
(lp3251
I0
aI774401
aI0
aI0
ag106
aI0
aI0
aI0
aI0
aI0
aI0
aI0
aI0
aI00
aI463261
aI-94556
aI0
aI0
aI0
aI774401
aI368705
aI2
aI0
atp3252
ba(lp3253
g16
(g17
(dp3254
g19
g20
(g21
(I0
tp3255
g23
tp3256
Rp3257
(I1
(I23
tp3258
g30
I00
(lp3259
g34
ag35
ag36
ag37
ag38
ag39
ag40
ag41
ag42
ag43
ag44
ag45
ag46
ag47
ag48
ag49
ag50
ag51
ag52
ag53
ag54
ag55
ag56
atp3260
bsg10
Nstp3261
Rp3262
a(dp3263
g79
(dp3264
g81
g3245
sg82
(lp3265
(dp3266
g85
g86
(I0
I23
I1
tp3267
Rp3268
sg89
g3249
sasstp3269
bsg91
g92
sg10
g3239
sbsS'KEAN STEVEN J'
p3270
g2
(g3
g4
Ntp3271
Rp3272
(dp3273
g8
g9
sg11
g2
(g12
g4
Ntp3274
Rp3275
((lp3276
g59
a(lp3277
g20
(g21
(I0
tp3278
g23
tp3279
Rp3280
(I1
(I23
tp3281
g30
I00
(lp3282
I1000000
aI0
aI0
aI0
aS'steven.kean@enron.com'
p3283
aI2022048
aI41953
aI6759
aI140
aI387
aI0
aI300000
aI1231
aI00
aI4131594
aI0
aI404338
aI3639
aI12754
aI1747522
aI6153642
aI0
aI527
atp3284
ba(lp3285
g16
(g17
(dp3286
g19
g20
(g21
(I0
tp3287
g23
tp3288
Rp3289
(I1
(I23
tp3290
g30
I00
(lp3291
g34
ag35
ag36
ag37
ag38
ag39
ag40
ag41
ag42
ag43
ag44
ag45
ag46
ag47
ag48
ag49
ag50
ag51
ag52
ag53
ag54
ag55
ag56
atp3292
bsg10
Nstp3293
Rp3294
a(dp3295
g79
(dp3296
g81
g3276
sg82
(lp3297
(dp3298
g85
g86
(I0
I23
I1
tp3299
Rp3300
sg89
g3280
sasstp3301
bsg91
g92
sg10
g3270
sbsS'FOWLER PEGGY'
p3302
g2
(g3
g4
Ntp3303
Rp3304
(dp3305
g8
g9
sg11
g2
(g12
g4
Ntp3306
Rp3307
((lp3308
g59
a(lp3309
g20
(g21
(I0
tp3310
g23
tp3311
Rp3312
(I1
(I23
tp3313
g30
I00
(lp3314
I0
aI0
aI0
aI0
aS'kulvinder.fowler@enron.com'
p3315
aI1324578
aI0
aI36
aI0
aI0
aI0
aI0
aI0
aI00
aI560170
aI0
aI0
aI10
aI517
aI0
aI1884748
aI0
aI0
atp3316
ba(lp3317
g16
(g17
(dp3318
g19
g20
(g21
(I0
tp3319
g23
tp3320
Rp3321
(I1
(I23
tp3322
g30
I00
(lp3323
g34
ag35
ag36
ag37
ag38
ag39
ag40
ag41
ag42
ag43
ag44
ag45
ag46
ag47
ag48
ag49
ag50
ag51
ag52
ag53
ag54
ag55
ag56
atp3324
bsg10
Nstp3325
Rp3326
a(dp3327
g79
(dp3328
g81
g3308
sg82
(lp3329
(dp3330
g85
g86
(I0
I23
I1
tp3331
Rp3332
sg89
g3312
sasstp3333
bsg91
g92
sg10
g3302
sbsS'WASAFF GEORGE'
p3334
g2
(g3
g4
Ntp3335
Rp3336
(dp3337
g8
g9
sg11
g2
(g12
g4
Ntp3338
Rp3339
((lp3340
g59
a(lp3341
g20
(g21
(I0
tp3342
g23
tp3343
Rp3344
(I1
(I23
tp3345
g30
I00
(lp3346
I325000
aI831299
aI-583325
aI0
aS'george.wasaff@enron.com'
p3347
aI1668260
aI0
aI30
aI22
aI7
aI0
aI200000
aI1425
aI00
aI388167
aI0
aI259996
aI337
aI400
aI1034395
aI2056427
aI0
aI29
atp3348
ba(lp3349
g16
(g17
(dp3350
g19
g20
(g21
(I0
tp3351
g23
tp3352
Rp3353
(I1
(I23
tp3354
g30
I00
(lp3355
g34
ag35
ag36
ag37
ag38
ag39
ag40
ag41
ag42
ag43
ag44
ag45
ag46
ag47
ag48
ag49
ag50
ag51
ag52
ag53
ag54
ag55
ag56
atp3356
bsg10
Nstp3357
Rp3358
a(dp3359
g79
(dp3360
g81
g3340
sg82
(lp3361
(dp3362
g85
g86
(I0
I23
I1
tp3363
Rp3364
sg89
g3344
sasstp3365
bsg91
g92
sg10
g3334
sbsS'WHITE JR THOMAS E'
p3366
g2
(g3
g4
Ntp3367
Rp3368
(dp3369
g8
g9
sg11
g2
(g12
g4
Ntp3370
Rp3371
((lp3372
g59
a(lp3373
g20
(g21
(I0
tp3374
g23
tp3375
Rp3376
(I1
(I23
tp3377
g30
I00
(lp3378
I450000
aI0
aI0
aI0
aS'thomas.white@enron.com'
p3379
aI1297049
aI81353
aI0
aI0
aI0
aI0
aI0
aI1085463
aI00
aI13847074
aI0
aI317543
aI0
aI0
aI1934359
aI15144123
aI0
aI0
atp3380
ba(lp3381
g16
(g17
(dp3382
g19
g20
(g21
(I0
tp3383
g23
tp3384
Rp3385
(I1
(I23
tp3386
g30
I00
(lp3387
g34
ag35
ag36
ag37
ag38
ag39
ag40
ag41
ag42
ag43
ag44
ag45
ag46
ag47
ag48
ag49
ag50
ag51
ag52
ag53
ag54
ag55
ag56
atp3388
bsg10
Nstp3389
Rp3390
a(dp3391
g79
(dp3392
g81
g3372
sg82
(lp3393
(dp3394
g85
g86
(I0
I23
I1
tp3395
Rp3396
sg89
g3376
sasstp3397
bsg91
g92
sg10
g3366
sbsS'CHRISTODOULOU DIOMEDES'
p3398
g2
(g3
g4
Ntp3399
Rp3400
(dp3401
g8
g9
sg11
g2
(g12
g4
Ntp3402
Rp3403
((lp3404
g59
a(lp3405
g20
(g21
(I0
tp3406
g23
tp3407
Rp3408
(I1
(I23
tp3409
g30
I00
(lp3410
I0
aI0
aI0
aI0
aS'diomedes.christodoulou@enron.com'
p3411
aI5127155
aI0
aI0
aI0
aI0
aI0
aI0
aI0
aI00
aI950730
aI0
aI0
aI0
aI0
aI0
aI6077885
aI0
aI0
atp3412
ba(lp3413
g16
(g17
(dp3414
g19
g20
(g21
(I0
tp3415
g23
tp3416
Rp3417
(I1
(I23
tp3418
g30
I00
(lp3419
g34
ag35
ag36
ag37
ag38
ag39
ag40
ag41
ag42
ag43
ag44
ag45
ag46
ag47
ag48
ag49
ag50
ag51
ag52
ag53
ag54
ag55
ag56
atp3420
bsg10
Nstp3421
Rp3422
a(dp3423
g79
(dp3424
g81
g3404
sg82
(lp3425
(dp3426
g85
g86
(I0
I23
I1
tp3427
Rp3428
sg89
g3408
sasstp3429
bsg91
g92
sg10
g3398
sbsS'ALLEN PHILLIP K'
p3430
g2
(g3
g4
Ntp3431
Rp3432
(dp3433
g8
g9
sg11
g2
(g12
g4
Ntp3434
Rp3435
((lp3436
g59
a(lp3437
g20
(g21
(I0
tp3438
g23
tp3439
Rp3440
(I1
(I23
tp3441
g30
I00
(lp3442
I4175000
aI2869717
aI-3081055
aI0
aS'phillip.allen@enron.com'
p3443
aI1729541
aI13868
aI2195
aI47
aI65
aI0
aI304805
aI152
aI00
aI126027
aI-126027
aI201955
aI1407
aI2902
aI4484442
aI1729541
aI2
aI112
atp3444
ba(lp3445
g16
(g17
(dp3446
g19
g20
(g21
(I0
tp3447
g23
tp3448
Rp3449
(I1
(I23
tp3450
g30
I00
(lp3451
g34
ag35
ag36
ag37
ag38
ag39
ag40
ag41
ag42
ag43
ag44
ag45
ag46
ag47
ag48
ag49
ag50
ag51
ag52
ag53
ag54
ag55
ag56
atp3452
bsg10
Nstp3453
Rp3454
a(dp3455
g79
(dp3456
g81
g3436
sg82
(lp3457
(dp3458
g85
g86
(I0
I23
I1
tp3459
Rp3460
sg89
g3440
sasstp3461
bsg91
g92
sg10
g3430
sbsS'SHARP VICTORIA T'
p3462
g2
(g3
g4
Ntp3463
Rp3464
(dp3465
g8
g9
sg11
g2
(g12
g4
Ntp3466
Rp3467
((lp3468
g59
a(lp3469
g20
(g21
(I0
tp3470
g23
tp3471
Rp3472
(I1
(I23
tp3473
g30
I00
(lp3474
I600000
aI187469
aI0
aI0
aS'vicki.sharp@enron.com'
p3475
aI281073
aI116337
aI136
aI24
aI6
aI0
aI422158
aI2401
aI00
aI213063
aI0
aI248146
aI2477
aI3136
aI1576511
aI494136
aI3
aI30
atp3476
ba(lp3477
g16
(g17
(dp3478
g19
g20
(g21
(I0
tp3479
g23
tp3480
Rp3481
(I1
(I23
tp3482
g30
I00
(lp3483
g34
ag35
ag36
ag37
ag38
ag39
ag40
ag41
ag42
ag43
ag44
ag45
ag46
ag47
ag48
ag49
ag50
ag51
ag52
ag53
ag54
ag55
ag56
atp3484
bsg10
Nstp3485
Rp3486
a(dp3487
g79
(dp3488
g81
g3468
sg82
(lp3489
(dp3490
g85
g86
(I0
I23
I1
tp3491
Rp3492
sg89
g3472
sasstp3493
bsg91
g92
sg10
g3462
sbsS'JAEDICKE ROBERT'
p3494
g2
(g3
g4
Ntp3495
Rp3496
(dp3497
g8
g9
sg11
g2
(g12
g4
Ntp3498
Rp3499
((lp3500
g59
a(lp3501
g20
(g21
(I0
tp3502
g23
tp3503
Rp3504
(I1
(I23
tp3505
g30
I00
(lp3506
I0
aI0
aI-25000
aI108750
ag106
aI431750
aI0
aI0
aI0
aI0
aI0
aI0
aI0
aI00
aI44093
aI-44093
aI0
aI0
aI0
aI83750
aI431750
aI0
aI0
atp3507
ba(lp3508
g16
(g17
(dp3509
g19
g20
(g21
(I0
tp3510
g23
tp3511
Rp3512
(I1
(I23
tp3513
g30
I00
(lp3514
g34
ag35
ag36
ag37
ag38
ag39
ag40
ag41
ag42
ag43
ag44
ag45
ag46
ag47
ag48
ag49
ag50
ag51
ag52
ag53
ag54
ag55
ag56
atp3515
bsg10
Nstp3516
Rp3517
a(dp3518
g79
(dp3519
g81
g3500
sg82
(lp3520
(dp3521
g85
g86
(I0
I23
I1
tp3522
Rp3523
sg89
g3504
sasstp3524
bsg91
g92
sg10
g3494
sbsS'WINOKUR JR. HERBERT S'
p3525
g2
(g3
g4
Ntp3526
Rp3527
(dp3528
g8
g9
sg11
g2
(g12
g4
Ntp3529
Rp3530
((lp3531
g59
a(lp3532
g20
(g21
(I0
tp3533
g23
tp3534
Rp3535
(I1
(I23
tp3536
g30
I00
(lp3537
I0
aI0
aI-25000
aI108579
ag106
aI0
aI1413
aI0
aI0
aI0
aI0
aI0
aI0
aI00
aI0
aI0
aI0
aI0
aI0
aI84992
aI0
aI0
aI0
atp3538
ba(lp3539
g16
(g17
(dp3540
g19
g20
(g21
(I0
tp3541
g23
tp3542
Rp3543
(I1
(I23
tp3544
g30
I00
(lp3545
g34
ag35
ag36
ag37
ag38
ag39
ag40
ag41
ag42
ag43
ag44
ag45
ag46
ag47
ag48
ag49
ag50
ag51
ag52
ag53
ag54
ag55
ag56
atp3546
bsg10
Nstp3547
Rp3548
a(dp3549
g79
(dp3550
g81
g3531
sg82
(lp3551
(dp3552
g85
g86
(I0
I23
I1
tp3553
Rp3554
sg89
g3535
sasstp3555
bsg91
g92
sg10
g3525
sbsS'BROWN MICHAEL'
p3556
g2
(g3
g4
Ntp3557
Rp3558
(dp3559
g8
g9
sg11
g2
(g12
g4
Ntp3560
Rp3561
((lp3562
g59
a(lp3563
g20
(g21
(I0
tp3564
g23
tp3565
Rp3566
(I1
(I23
tp3567
g30
I00
(lp3568
I0
aI0
aI0
aI0
aS'michael.brown@enron.com'
p3569
aI0
aI49288
aI41
aI13
aI1
aI0
aI0
aI0
aI00
aI0
aI0
aI0
aI761
aI1486
aI49288
aI0
aI0
aI14
atp3570
ba(lp3571
g16
(g17
(dp3572
g19
g20
(g21
(I0
tp3573
g23
tp3574
Rp3575
(I1
(I23
tp3576
g30
I00
(lp3577
g34
ag35
ag36
ag37
ag38
ag39
ag40
ag41
ag42
ag43
ag44
ag45
ag46
ag47
ag48
ag49
ag50
ag51
ag52
ag53
ag54
ag55
ag56
atp3578
bsg10
Nstp3579
Rp3580
a(dp3581
g79
(dp3582
g81
g3562
sg82
(lp3583
(dp3584
g85
g86
(I0
I23
I1
tp3585
Rp3586
sg89
g3566
sasstp3587
bsg91
g92
sg10
g3556
sbsS'BADUM JAMES P'
p3588
g2
(g3
g4
Ntp3589
Rp3590
(dp3591
g8
g9
sg11
g2
(g12
g4
Ntp3592
Rp3593
((lp3594
g59
a(lp3595
g20
(g21
(I0
tp3596
g23
tp3597
Rp3598
(I1
(I23
tp3599
g30
I00
(lp3600
I0
aI178980
aI0
aI0
ag106
aI257817
aI3486
aI0
aI0
aI0
aI0
aI0
aI0
aI00
aI0
aI0
aI0
aI0
aI0
aI182466
aI257817
aI0
aI0
atp3601
ba(lp3602
g16
(g17
(dp3603
g19
g20
(g21
(I0
tp3604
g23
tp3605
Rp3606
(I1
(I23
tp3607
g30
I00
(lp3608
g34
ag35
ag36
ag37
ag38
ag39
ag40
ag41
ag42
ag43
ag44
ag45
ag46
ag47
ag48
ag49
ag50
ag51
ag52
ag53
ag54
ag55
ag56
atp3609
bsg10
Nstp3610
Rp3611
a(dp3612
g79
(dp3613
g81
g3594
sg82
(lp3614
(dp3615
g85
g86
(I0
I23
I1
tp3616
Rp3617
sg89
g3598
sasstp3618
bsg91
g92
sg10
g3588
sbsS'HUGHES JAMES A'
p3619
g2
(g3
g4
Ntp3620
Rp3621
(dp3622
g8
g9
sg11
g2
(g12
g4
Ntp3623
Rp3624
((lp3625
g59
a(lp3626
g20
(g21
(I0
tp3627
g23
tp3628
Rp3629
(I1
(I23
tp3630
g30
I00
(lp3631
I0
aI0
aI0
aI0
aS'james.hughes@enron.com'
p3632
aI754966
aI0
aI34
aI35
aI5
aI0
aI0
aI0
aI00
aI363428
aI0
aI0
aI589
aI719
aI0
aI1118394
aI0
aI40
atp3633
ba(lp3634
g16
(g17
(dp3635
g19
g20
(g21
(I0
tp3636
g23
tp3637
Rp3638
(I1
(I23
tp3639
g30
I00
(lp3640
g34
ag35
ag36
ag37
ag38
ag39
ag40
ag41
ag42
ag43
ag44
ag45
ag46
ag47
ag48
ag49
ag50
ag51
ag52
ag53
ag54
ag55
ag56
atp3641
bsg10
Nstp3642
Rp3643
a(dp3644
g79
(dp3645
g81
g3625
sg82
(lp3646
(dp3647
g85
g86
(I0
I23
I1
tp3648
Rp3649
sg89
g3629
sasstp3650
bsg91
g92
sg10
g3619
sbsS'REYNOLDS LAWRENCE'
p3651
g2
(g3
g4
Ntp3652
Rp3653
(dp3654
g8
g9
sg11
g2
(g12
g4
Ntp3655
Rp3656
((lp3657
g59
a(lp3658
g20
(g21
(I0
tp3659
g23
tp3660
Rp3661
(I1
(I23
tp3662
g30
I00
(lp3663
I100000
aI51365
aI-200000
aI0
ag106
aI4160672
aI8409
aI0
aI0
aI0
aI0
aI156250
aI202052
aI00
aI201483
aI-140264
aI76399
aI0
aI0
aI394475
aI4221891
aI0
aI0
atp3664
ba(lp3665
g16
(g17
(dp3666
g19
g20
(g21
(I0
tp3667
g23
tp3668
Rp3669
(I1
(I23
tp3670
g30
I00
(lp3671
g34
ag35
ag36
ag37
ag38
ag39
ag40
ag41
ag42
ag43
ag44
ag45
ag46
ag47
ag48
ag49
ag50
ag51
ag52
ag53
ag54
ag55
ag56
atp3672
bsg10
Nstp3673
Rp3674
a(dp3675
g79
(dp3676
g81
g3657
sg82
(lp3677
(dp3678
g85
g86
(I0
I23
I1
tp3679
Rp3680
sg89
g3661
sasstp3681
bsg91
g92
sg10
g3651
sbsS'DIMICHELE RICHARD G'
p3682
g2
(g3
g4
Ntp3683
Rp3684
(dp3685
g8
g9
sg11
g2
(g12
g4
Ntp3686
Rp3687
((lp3688
g59
a(lp3689
g20
(g21
(I0
tp3690
g23
tp3691
Rp3692
(I1
(I23
tp3693
g30
I00
(lp3694
I1000000
aI0
aI0
aI0
aS'richard.dimichele@enron.com'
p3695
aI8191755
aI35812
aI0
aI0
aI0
aI0
aI694862
aI374689
aI00
aI126027
aI0
aI262788
aI0
aI0
aI2368151
aI8317782
aI0
aI0
atp3696
ba(lp3697
g16
(g17
(dp3698
g19
g20
(g21
(I0
tp3699
g23
tp3700
Rp3701
(I1
(I23
tp3702
g30
I00
(lp3703
g34
ag35
ag36
ag37
ag38
ag39
ag40
ag41
ag42
ag43
ag44
ag45
ag46
ag47
ag48
ag49
ag50
ag51
ag52
ag53
ag54
ag55
ag56
atp3704
bsg10
Nstp3705
Rp3706
a(dp3707
g79
(dp3708
g81
g3688
sg82
(lp3709
(dp3710
g85
g86
(I0
I23
I1
tp3711
Rp3712
sg89
g3692
sasstp3713
bsg91
g92
sg10
g3682
sbsS'BHATNAGAR SANJAY'
p3714
g2
(g3
g4
Ntp3715
Rp3716
(dp3717
g8
g9
sg11
g2
(g12
g4
Ntp3718
Rp3719
((lp3720
g59
a(lp3721
g20
(g21
(I0
tp3722
g23
tp3723
Rp3724
(I1
(I23
tp3725
g30
I00
(lp3726
I0
aI0
aI0
aI137864
aS'sanjay.bhatnagar@enron.com'
p3727
aI2604490
aI0
aI29
aI0
aI1
aI0
aI0
aI137864
aI00
aI-2604490
aI15456290
aI0
aI463
aI523
aI15456290
aI0
aI0
aI1
atp3728
ba(lp3729
g16
(g17
(dp3730
g19
g20
(g21
(I0
tp3731
g23
tp3732
Rp3733
(I1
(I23
tp3734
g30
I00
(lp3735
g34
ag35
ag36
ag37
ag38
ag39
ag40
ag41
ag42
ag43
ag44
ag45
ag46
ag47
ag48
ag49
ag50
ag51
ag52
ag53
ag54
ag55
ag56
atp3736
bsg10
Nstp3737
Rp3738
a(dp3739
g79
(dp3740
g81
g3720
sg82
(lp3741
(dp3742
g85
g86
(I0
I23
I1
tp3743
Rp3744
sg89
g3724
sasstp3745
bsg91
g92
sg10
g3714
sbsS'CARTER REBECCA C'
p3746
g2
(g3
g4
Ntp3747
Rp3748
(dp3749
g8
g9
sg11
g2
(g12
g4
Ntp3750
Rp3751
((lp3752
g59
a(lp3753
g20
(g21
(I0
tp3754
g23
tp3755
Rp3756
(I1
(I23
tp3757
g30
I00
(lp3758
I300000
aI0
aI-159792
aI0
aS'rebecca.carter@enron.com'
p3759
aI0
aI0
aI15
aI29
aI7
aI0
aI75000
aI540
aI00
aI307301
aI-307301
aI261809
aI196
aI312
aI477557
aI0
aI0
aI36
atp3760
ba(lp3761
g16
(g17
(dp3762
g19
g20
(g21
(I0
tp3763
g23
tp3764
Rp3765
(I1
(I23
tp3766
g30
I00
(lp3767
g34
ag35
ag36
ag37
ag38
ag39
ag40
ag41
ag42
ag43
ag44
ag45
ag46
ag47
ag48
ag49
ag50
ag51
ag52
ag53
ag54
ag55
ag56
atp3768
bsg10
Nstp3769
Rp3770
a(dp3771
g79
(dp3772
g81
g3752
sg82
(lp3773
(dp3774
g85
g86
(I0
I23
I1
tp3775
Rp3776
sg89
g3756
sasstp3777
bsg91
g92
sg10
g3746
sbsS'BUCHANAN HAROLD G'
p3778
g2
(g3
g4
Ntp3779
Rp3780
(dp3781
g8
g9
sg11
g2
(g12
g4
Ntp3782
Rp3783
((lp3784
g59
a(lp3785
g20
(g21
(I0
tp3786
g23
tp3787
Rp3788
(I1
(I23
tp3789
g30
I00
(lp3790
I500000
aI0
aI0
aI0
aS'john.buchanan@enron.com'
p3791
aI825464
aI600
aI125
aI0
aI0
aI0
aI304805
aI1215
aI00
aI189041
aI0
aI248017
aI23
aI1088
aI1054637
aI1014505
aI1
aI0
atp3792
ba(lp3793
g16
(g17
(dp3794
g19
g20
(g21
(I0
tp3795
g23
tp3796
Rp3797
(I1
(I23
tp3798
g30
I00
(lp3799
g34
ag35
ag36
ag37
ag38
ag39
ag40
ag41
ag42
ag43
ag44
ag45
ag46
ag47
ag48
ag49
ag50
ag51
ag52
ag53
ag54
ag55
ag56
atp3800
bsg10
Nstp3801
Rp3802
a(dp3803
g79
(dp3804
g81
g3784
sg82
(lp3805
(dp3806
g85
g86
(I0
I23
I1
tp3807
Rp3808
sg89
g3788
sasstp3809
bsg91
g92
sg10
g3778
sbsS'YEAP SOON'
p3810
g2
(g3
g4
Ntp3811
Rp3812
(dp3813
g8
g9
sg11
g2
(g12
g4
Ntp3814
Rp3815
((lp3816
g59
a(lp3817
g20
(g21
(I0
tp3818
g23
tp3819
Rp3820
(I1
(I23
tp3821
g30
I00
(lp3822
I0
aI0
aI0
aI0
ag106
aI192758
aI55097
aI0
aI0
aI0
aI0
aI0
aI0
aI00
aI0
aI0
aI0
aI0
aI0
aI55097
aI192758
aI0
aI0
atp3823
ba(lp3824
g16
(g17
(dp3825
g19
g20
(g21
(I0
tp3826
g23
tp3827
Rp3828
(I1
(I23
tp3829
g30
I00
(lp3830
g34
ag35
ag36
ag37
ag38
ag39
ag40
ag41
ag42
ag43
ag44
ag45
ag46
ag47
ag48
ag49
ag50
ag51
ag52
ag53
ag54
ag55
ag56
atp3831
bsg10
Nstp3832
Rp3833
a(dp3834
g79
(dp3835
g81
g3816
sg82
(lp3836
(dp3837
g85
g86
(I0
I23
I1
tp3838
Rp3839
sg89
g3820
sasstp3840
bsg91
g92
sg10
g3810
sbsS'MURRAY JULIA H'
p3841
g2
(g3
g4
Ntp3842
Rp3843
(dp3844
g8
g9
sg11
g2
(g12
g4
Ntp3845
Rp3846
((lp3847
g59
a(lp3848
g20
(g21
(I0
tp3849
g23
tp3850
Rp3851
(I1
(I23
tp3852
g30
I00
(lp3853
I400000
aI0
aI0
aI0
aS'julia.murray@enron.com'
p3854
aI400478
aI57580
aI45
aI11
aI2
aI0
aI125000
aI330
aI00
aI196983
aI0
aI229284
aI395
aI2192
aI812194
aI597461
aI1
aI13
atp3855
ba(lp3856
g16
(g17
(dp3857
g19
g20
(g21
(I0
tp3858
g23
tp3859
Rp3860
(I1
(I23
tp3861
g30
I00
(lp3862
g34
ag35
ag36
ag37
ag38
ag39
ag40
ag41
ag42
ag43
ag44
ag45
ag46
ag47
ag48
ag49
ag50
ag51
ag52
ag53
ag54
ag55
ag56
atp3863
bsg10
Nstp3864
Rp3865
a(dp3866
g79
(dp3867
g81
g3847
sg82
(lp3868
(dp3869
g85
g86
(I0
I23
I1
tp3870
Rp3871
sg89
g3851
sasstp3872
bsg91
g92
sg10
g3841
sbsS'GARLAND C KEVIN'
p3873
g2
(g3
g4
Ntp3874
Rp3875
(dp3876
g8
g9
sg11
g2
(g12
g4
Ntp3877
Rp3878
((lp3879
g59
a(lp3880
g20
(g21
(I0
tp3881
g23
tp3882
Rp3883
(I1
(I23
tp3884
g30
I00
(lp3885
I850000
aI0
aI0
aI0
aS'kevin.garland@enron.com'
p3886
aI636246
aI48405
aI44
aI10
aI27
aI0
aI375304
aI60814
aI00
aI259907
aI0
aI231946
aI178
aI209
aI1566469
aI896153
aI1
aI37
atp3887
ba(lp3888
g16
(g17
(dp3889
g19
g20
(g21
(I0
tp3890
g23
tp3891
Rp3892
(I1
(I23
tp3893
g30
I00
(lp3894
g34
ag35
ag36
ag37
ag38
ag39
ag40
ag41
ag42
ag43
ag44
ag45
ag46
ag47
ag48
ag49
ag50
ag51
ag52
ag53
ag54
ag55
ag56
atp3895
bsg10
Nstp3896
Rp3897
a(dp3898
g79
(dp3899
g81
g3879
sg82
(lp3900
(dp3901
g85
g86
(I0
I23
I1
tp3902
Rp3903
sg89
g3883
sasstp3904
bsg91
g92
sg10
g3873
sbsS'DODSON KEITH'
p3905
g2
(g3
g4
Ntp3906
Rp3907
(dp3908
g8
g9
sg11
g2
(g12
g4
Ntp3909
Rp3910
((lp3911
g59
a(lp3912
g20
(g21
(I0
tp3913
g23
tp3914
Rp3915
(I1
(I23
tp3916
g30
I00
(lp3917
I70000
aI0
aI0
aI0
aS'keith.dodson@enron.com'
p3918
aI0
aI28164
aI14
aI10
aI3
aI0
aI0
aI774
aI00
aI0
aI0
aI221003
aI114
aI176
aI319941
aI0
aI0
aI13
atp3919
ba(lp3920
g16
(g17
(dp3921
g19
g20
(g21
(I0
tp3922
g23
tp3923
Rp3924
(I1
(I23
tp3925
g30
I00
(lp3926
g34
ag35
ag36
ag37
ag38
ag39
ag40
ag41
ag42
ag43
ag44
ag45
ag46
ag47
ag48
ag49
ag50
ag51
ag52
ag53
ag54
ag55
ag56
atp3927
bsg10
Nstp3928
Rp3929
a(dp3930
g79
(dp3931
g81
g3911
sg82
(lp3932
(dp3933
g85
g86
(I0
I23
I1
tp3934
Rp3935
sg89
g3915
sasstp3936
bsg91
g92
sg10
g3905
sbsS'YEAGER F SCOTT'
p3937
g2
(g3
g4
Ntp3938
Rp3939
(dp3940
g8
g9
sg11
g2
(g12
g4
Ntp3941
Rp3942
((lp3943
g59
a(lp3944
g20
(g21
(I0
tp3945
g23
tp3946
Rp3947
(I1
(I23
tp3948
g30
I00
(lp3949
I0
aI0
aI0
aI0
aS'scott.yeager@enron.com'
p3950
aI8308552
aI53947
aI0
aI0
aI0
aI0
aI0
aI147950
aI01
aI3576206
aI0
aI158403
aI0
aI0
aI360300
aI11884758
aI0
aI0
atp3951
ba(lp3952
g16
(g17
(dp3953
g19
g20
(g21
(I0
tp3954
g23
tp3955
Rp3956
(I1
(I23
tp3957
g30
I00
(lp3958
g34
ag35
ag36
ag37
ag38
ag39
ag40
ag41
ag42
ag43
ag44
ag45
ag46
ag47
ag48
ag49
ag50
ag51
ag52
ag53
ag54
ag55
ag56
atp3959
bsg10
Nstp3960
Rp3961
a(dp3962
g79
(dp3963
g81
g3943
sg82
(lp3964
(dp3965
g85
g86
(I0
I23
I1
tp3966
Rp3967
sg89
g3947
sasstp3968
bsg91
g92
sg10
g3937
sbsS'HIRKO JOSEPH'
p3969
g2
(g3
g4
Ntp3970
Rp3971
(dp3972
g8
g9
sg11
g2
(g12
g4
Ntp3973
Rp3974
((lp3975
g59
a(lp3976
g20
(g21
(I0
tp3977
g23
tp3978
Rp3979
(I1
(I23
tp3980
g30
I00
(lp3981
I0
aI10259
aI0
aI0
aS'joe.hirko@enron.com'
p3982
aI30766064
aI77978
aI0
aI0
aI0
aI0
aI0
aI2856
aI01
aI0
aI0
aI0
aI0
aI0
aI91093
aI30766064
aI0
aI0
atp3983
ba(lp3984
g16
(g17
(dp3985
g19
g20
(g21
(I0
tp3986
g23
tp3987
Rp3988
(I1
(I23
tp3989
g30
I00
(lp3990
g34
ag35
ag36
ag37
ag38
ag39
ag40
ag41
ag42
ag43
ag44
ag45
ag46
ag47
ag48
ag49
ag50
ag51
ag52
ag53
ag54
ag55
ag56
atp3991
bsg10
Nstp3992
Rp3993
a(dp3994
g79
(dp3995
g81
g3975
sg82
(lp3996
(dp3997
g85
g86
(I0
I23
I1
tp3998
Rp3999
sg89
g3979
sasstp4000
bsg91
g92
sg10
g3969
sbsS'DIETRICH JANET R'
p4001
g2
(g3
g4
Ntp4002
Rp4003
(dp4004
g8
g9
sg11
g2
(g12
g4
Ntp4005
Rp4006
((lp4007
g59
a(lp4008
g20
(g21
(I0
tp4009
g23
tp4010
Rp4011
(I1
(I23
tp4012
g30
I00
(lp4013
I600000
aI0
aI0
aI0
aS'janet.dietrich@enron.com'
p4014
aI1550019
aI3475
aI63
aI305
aI14
aI0
aI556416
aI473
aI00
aI315068
aI0
aI250100
aI1902
aI2572
aI1410464
aI1865087
aI0
aI319
atp4015
ba(lp4016
g16
(g17
(dp4017
g19
g20
(g21
(I0
tp4018
g23
tp4019
Rp4020
(I1
(I23
tp4021
g30
I00
(lp4022
g34
ag35
ag36
ag37
ag38
ag39
ag40
ag41
ag42
ag43
ag44
ag45
ag46
ag47
ag48
ag49
ag50
ag51
ag52
ag53
ag54
ag55
ag56
atp4023
bsg10
Nstp4024
Rp4025
a(dp4026
g79
(dp4027
g81
g4007
sg82
(lp4028
(dp4029
g85
g86
(I0
I23
I1
tp4030
Rp4031
sg89
g4011
sasstp4032
bsg91
g92
sg10
g4001
sbsS'DERRICK JR. JAMES V'
p4033
g2
(g3
g4
Ntp4034
Rp4035
(dp4036
g8
g9
sg11
g2
(g12
g4
Ntp4037
Rp4038
((lp4039
g59
a(lp4040
g20
(g21
(I0
tp4041
g23
tp4042
Rp4043
(I1
(I23
tp4044
g30
I00
(lp4045
I800000
aI0
aI-1284000
aI0
aS'james.derrick@enron.com'
p4046
aI8831913
aI51124
aI909
aI64
aI20
aI0
aI484000
aI7482
aI00
aI1787380
aI-1787380
aI492375
aI1401
aI2181
aI550981
aI8831913
aI0
aI84
atp4047
ba(lp4048
g16
(g17
(dp4049
g19
g20
(g21
(I0
tp4050
g23
tp4051
Rp4052
(I1
(I23
tp4053
g30
I00
(lp4054
g34
ag35
ag36
ag37
ag38
ag39
ag40
ag41
ag42
ag43
ag44
ag45
ag46
ag47
ag48
ag49
ag50
ag51
ag52
ag53
ag54
ag55
ag56
atp4055
bsg10
Nstp4056
Rp4057
a(dp4058
g79
(dp4059
g81
g4039
sg82
(lp4060
(dp4061
g85
g86
(I0
I23
I1
tp4062
Rp4063
sg89
g4043
sasstp4064
bsg91
g92
sg10
g4033
sbsS'FREVERT MARK A'
p4065
g2
(g3
g4
Ntp4066
Rp4067
(dp4068
g8
g9
sg11
g2
(g12
g4
Ntp4069
Rp4070
((lp4071
g59
a(lp4072
g20
(g21
(I0
tp4073
g23
tp4074
Rp4075
(I1
(I23
tp4076
g30
I00
(lp4077
I2000000
aI6426990
aI-3367011
aI0
aS'mark.frevert@enron.com'
p4078
aI10433518
aI86987
aI21
aI242
aI6
aI2000000
aI1617011
aI7427621
aI00
aI4188667
aI0
aI1060932
aI2979
aI3275
aI17252530
aI14622185
aI1
aI248
atp4079
ba(lp4080
g16
(g17
(dp4081
g19
g20
(g21
(I0
tp4082
g23
tp4083
Rp4084
(I1
(I23
tp4085
g30
I00
(lp4086
g34
ag35
ag36
ag37
ag38
ag39
ag40
ag41
ag42
ag43
ag44
ag45
ag46
ag47
ag48
ag49
ag50
ag51
ag52
ag53
ag54
ag55
ag56
atp4087
bsg10
Nstp4088
Rp4089
a(dp4090
g79
(dp4091
g81
g4071
sg82
(lp4092
(dp4093
g85
g86
(I0
I23
I1
tp4094
Rp4095
sg89
g4075
sasstp4096
bsg91
g92
sg10
g4065
sbsS'PAI LOU L'
p4097
g2
(g3
g4
Ntp4098
Rp4099
(dp4100
g8
g9
sg11
g2
(g12
g4
Ntp4101
Rp4102
((lp4103
g59
a(lp4104
g20
(g21
(I0
tp4105
g23
tp4106
Rp4107
(I1
(I23
tp4108
g30
I00
(lp4109
I1000000
aI0
aI0
aI0
aS'lou.pai@enron.com'
p4110
aI15364167
aI32047
aI0
aI0
aI0
aI0
aI0
aI1829457
aI00
aI8453763
aI0
aI261879
aI0
aI0
aI3123383
aI23817930
aI0
aI0
atp4111
ba(lp4112
g16
(g17
(dp4113
g19
g20
(g21
(I0
tp4114
g23
tp4115
Rp4116
(I1
(I23
tp4117
g30
I00
(lp4118
g34
ag35
ag36
ag37
ag38
ag39
ag40
ag41
ag42
ag43
ag44
ag45
ag46
ag47
ag48
ag49
ag50
ag51
ag52
ag53
ag54
ag55
ag56
atp4119
bsg10
Nstp4120
Rp4121
a(dp4122
g79
(dp4123
g81
g4103
sg82
(lp4124
(dp4125
g85
g86
(I0
I23
I1
tp4126
Rp4127
sg89
g4107
sasstp4128
bsg91
g92
sg10
g4097
sbsS'BAY FRANKLIN R'
p4129
g2
(g3
g4
Ntp4130
Rp4131
(dp4132
g8
g9
sg11
g2
(g12
g4
Ntp4133
Rp4134
((lp4135
g59
a(lp4136
g20
(g21
(I0
tp4137
g23
tp4138
Rp4139
(I1
(I23
tp4140
g30
I00
(lp4141
I400000
aI260455
aI-201641
aI0
aS'frank.bay@enron.com'
p4142
aI0
aI129142
aI0
aI0
aI0
aI0
aI0
aI69
aI00
aI145796
aI-82782
aI239671
aI0
aI0
aI827696
aI63014
aI13
aI0
atp4143
ba(lp4144
g16
(g17
(dp4145
g19
g20
(g21
(I0
tp4146
g23
tp4147
Rp4148
(I1
(I23
tp4149
g30
I00
(lp4150
g34
ag35
ag36
ag37
ag38
ag39
ag40
ag41
ag42
ag43
ag44
ag45
ag46
ag47
ag48
ag49
ag50
ag51
ag52
ag53
ag54
ag55
ag56
atp4151
bsg10
Nstp4152
Rp4153
a(dp4154
g79
(dp4155
g81
g4135
sg82
(lp4156
(dp4157
g85
g86
(I0
I23
I1
tp4158
Rp4159
sg89
g4139
sasstp4160
bsg91
g92
sg10
g4129
sbsS'HAYSLETT RODERICK J'
p4161
g2
(g3
g4
Ntp4162
Rp4163
(dp4164
g8
g9
sg11
g2
(g12
g4
Ntp4165
Rp4166
((lp4167
g59
a(lp4168
g20
(g21
(I0
tp4169
g23
tp4170
Rp4171
(I1
(I23
tp4172
g30
I00
(lp4173
I0
aI0
aI0
aI0
aS'rod.hayslett@enron.com'
p4174
aI0
aI0
aI1061
aI35
aI38
aI0
aI0
aI0
aI00
aI346663
aI0
aI0
aI571
aI2649
aI0
aI346663
aI0
aI73
atp4175
ba(lp4176
g16
(g17
(dp4177
g19
g20
(g21
(I0
tp4178
g23
tp4179
Rp4180
(I1
(I23
tp4181
g30
I00
(lp4182
g34
ag35
ag36
ag37
ag38
ag39
ag40
ag41
ag42
ag43
ag44
ag45
ag46
ag47
ag48
ag49
ag50
ag51
ag52
ag53
ag54
ag55
ag56
atp4183
bsg10
Nstp4184
Rp4185
a(dp4186
g79
(dp4187
g81
g4167
sg82
(lp4188
(dp4189
g85
g86
(I0
I23
I1
tp4190
Rp4191
sg89
g4171
sasstp4192
bsg91
g92
sg10
g4161
sbsS'FUGH JOHN L'
p4193
g2
(g3
g4
Ntp4194
Rp4195
(dp4196
g8
g9
sg11
g2
(g12
g4
Ntp4197
Rp4198
((lp4199
g59
a(lp4200
g20
(g21
(I0
tp4201
g23
tp4202
Rp4203
(I1
(I23
tp4204
g30
I00
(lp4205
I0
aI50591
aI0
aI0
ag106
aI176378
aI0
aI0
aI0
aI0
aI0
aI0
aI0
aI00
aI0
aI0
aI0
aI0
aI0
aI50591
aI176378
aI0
aI0
atp4206
ba(lp4207
g16
(g17
(dp4208
g19
g20
(g21
(I0
tp4209
g23
tp4210
Rp4211
(I1
(I23
tp4212
g30
I00
(lp4213
g34
ag35
ag36
ag37
ag38
ag39
ag40
ag41
ag42
ag43
ag44
ag45
ag46
ag47
ag48
ag49
ag50
ag51
ag52
ag53
ag54
ag55
ag56
atp4214
bsg10
Nstp4215
Rp4216
a(dp4217
g79
(dp4218
g81
g4199
sg82
(lp4219
(dp4220
g85
g86
(I0
I23
I1
tp4221
Rp4222
sg89
g4203
sasstp4223
bsg91
g92
sg10
g4193
sbsS'FALLON JAMES B'
p4224
g2
(g3
g4
Ntp4225
Rp4226
(dp4227
g8
g9
sg11
g2
(g12
g4
Ntp4228
Rp4229
((lp4230
g59
a(lp4231
g20
(g21
(I0
tp4232
g23
tp4233
Rp4234
(I1
(I23
tp4235
g30
I00
(lp4236
I2500000
aI0
aI0
aI0
aS'jim.fallon@enron.com'
p4237
aI940257
aI95924
aI75
aI42
aI37
aI0
aI374347
aI401481
aI00
aI1392142
aI0
aI304588
aI1604
aI1755
aI3676340
aI2332399
aI1
aI79
atp4238
ba(lp4239
g16
(g17
(dp4240
g19
g20
(g21
(I0
tp4241
g23
tp4242
Rp4243
(I1
(I23
tp4244
g30
I00
(lp4245
g34
ag35
ag36
ag37
ag38
ag39
ag40
ag41
ag42
ag43
ag44
ag45
ag46
ag47
ag48
ag49
ag50
ag51
ag52
ag53
ag54
ag55
ag56
atp4246
bsg10
Nstp4247
Rp4248
a(dp4249
g79
(dp4250
g81
g4230
sg82
(lp4251
(dp4252
g85
g86
(I0
I23
I1
tp4253
Rp4254
sg89
g4234
sasstp4255
bsg91
g92
sg10
g4224
sbsS'KOENIG MARK E'
p4256
g2
(g3
g4
Ntp4257
Rp4258
(dp4259
g8
g9
sg11
g2
(g12
g4
Ntp4260
Rp4261
((lp4262
g59
a(lp4263
g20
(g21
(I0
tp4264
g23
tp4265
Rp4266
(I1
(I23
tp4267
g30
I00
(lp4268
I700000
aI0
aI0
aI0
aS'mark.koenig@enron.com'
p4269
aI671737
aI127017
aI61
aI53
aI15
aI0
aI300000
aI150458
aI01
aI1248318
aI0
aI309946
aI2271
aI2374
aI1587421
aI1920055
aI0
aI68
atp4270
ba(lp4271
g16
(g17
(dp4272
g19
g20
(g21
(I0
tp4273
g23
tp4274
Rp4275
(I1
(I23
tp4276
g30
I00
(lp4277
g34
ag35
ag36
ag37
ag38
ag39
ag40
ag41
ag42
ag43
ag44
ag45
ag46
ag47
ag48
ag49
ag50
ag51
ag52
ag53
ag54
ag55
ag56
atp4278
bsg10
Nstp4279
Rp4280
a(dp4281
g79
(dp4282
g81
g4262
sg82
(lp4283
(dp4284
g85
g86
(I0
I23
I1
tp4285
Rp4286
sg89
g4266
sasstp4287
bsg91
g92
sg10
g4256
sbsS'SAVAGE FRANK'
p4288
g2
(g3
g4
Ntp4289
Rp4290
(dp4291
g8
g9
sg11
g2
(g12
g4
Ntp4292
Rp4293
((lp4294
g59
a(lp4295
g20
(g21
(I0
tp4296
g23
tp4297
Rp4298
(I1
(I23
tp4299
g30
I00
(lp4300
I0
aI0
aI-121284
aI125034
ag106
aI0
aI0
aI0
aI0
aI0
aI0
aI0
aI0
aI00
aI0
aI0
aI0
aI0
aI0
aI3750
aI0
aI0
aI0
atp4301
ba(lp4302
g16
(g17
(dp4303
g19
g20
(g21
(I0
tp4304
g23
tp4305
Rp4306
(I1
(I23
tp4307
g30
I00
(lp4308
g34
ag35
ag36
ag37
ag38
ag39
ag40
ag41
ag42
ag43
ag44
ag45
ag46
ag47
ag48
ag49
ag50
ag51
ag52
ag53
ag54
ag55
ag56
atp4309
bsg10
Nstp4310
Rp4311
a(dp4312
g79
(dp4313
g81
g4294
sg82
(lp4314
(dp4315
g85
g86
(I0
I23
I1
tp4316
Rp4317
sg89
g4298
sasstp4318
bsg91
g92
sg10
g4288
sbsS'IZZO LAWRENCE L'
p4319
g2
(g3
g4
Ntp4320
Rp4321
(dp4322
g8
g9
sg11
g2
(g12
g4
Ntp4323
Rp4324
((lp4325
g59
a(lp4326
g20
(g21
(I0
tp4327
g23
tp4328
Rp4329
(I1
(I23
tp4330
g30
I00
(lp4331
I0
aI0
aI0
aI0
aS'larry.izzo@enron.com'
p4332
aI2165172
aI28093
aI19
aI28
aI5
aI0
aI312500
aI1553729
aI00
aI3654808
aI0
aI85274
aI437
aI496
aI1979596
aI5819980
aI0
aI33
atp4333
ba(lp4334
g16
(g17
(dp4335
g19
g20
(g21
(I0
tp4336
g23
tp4337
Rp4338
(I1
(I23
tp4339
g30
I00
(lp4340
g34
ag35
ag36
ag37
ag38
ag39
ag40
ag41
ag42
ag43
ag44
ag45
ag46
ag47
ag48
ag49
ag50
ag51
ag52
ag53
ag54
ag55
ag56
atp4341
bsg10
Nstp4342
Rp4343
a(dp4344
g79
(dp4345
g81
g4325
sg82
(lp4346
(dp4347
g85
g86
(I0
I23
I1
tp4348
Rp4349
sg89
g4329
sasstp4350
bsg91
g92
sg10
g4319
sbsS'TILNEY ELIZABETH A'
p4351
g2
(g3
g4
Ntp4352
Rp4353
(dp4354
g8
g9
sg11
g2
(g12
g4
Ntp4355
Rp4356
((lp4357
g59
a(lp4358
g20
(g21
(I0
tp4359
g23
tp4360
Rp4361
(I1
(I23
tp4362
g30
I00
(lp4363
I300000
aI0
aI-575000
aI0
aS'elizabeth.tilney@enron.com'
p4364
aI591250
aI0
aI19
aI10
aI11
aI0
aI275000
aI152055
aI00
aI576792
aI0
aI247338
aI379
aI460
aI399393
aI1168042
aI0
aI21
atp4365
ba(lp4366
g16
(g17
(dp4367
g19
g20
(g21
(I0
tp4368
g23
tp4369
Rp4370
(I1
(I23
tp4371
g30
I00
(lp4372
g34
ag35
ag36
ag37
ag38
ag39
ag40
ag41
ag42
ag43
ag44
ag45
ag46
ag47
ag48
ag49
ag50
ag51
ag52
ag53
ag54
ag55
ag56
atp4373
bsg10
Nstp4374
Rp4375
a(dp4376
g79
(dp4377
g81
g4357
sg82
(lp4378
(dp4379
g85
g86
(I0
I23
I1
tp4380
Rp4381
sg89
g4361
sasstp4382
bsg91
g92
sg10
g4351
sbsS'MARTIN AMANDA K'
p4383
g2
(g3
g4
Ntp4384
Rp4385
(dp4386
g8
g9
sg11
g2
(g12
g4
Ntp4387
Rp4388
((lp4389
g59
a(lp4390
g20
(g21
(I0
tp4391
g23
tp4392
Rp4393
(I1
(I23
tp4394
g30
I00
(lp4395
I0
aI85430
aI0
aI0
aS'a..martin@enron.com'
p4396
aI2070306
aI8211
aI230
aI8
aI0
aI0
aI5145434
aI2818454
aI00
aI0
aI0
aI349487
aI477
aI1522
aI8407016
aI2070306
aI4
aI8
atp4397
ba(lp4398
g16
(g17
(dp4399
g19
g20
(g21
(I0
tp4400
g23
tp4401
Rp4402
(I1
(I23
tp4403
g30
I00
(lp4404
g34
ag35
ag36
ag37
ag38
ag39
ag40
ag41
ag42
ag43
ag44
ag45
ag46
ag47
ag48
ag49
ag50
ag51
ag52
ag53
ag54
ag55
ag56
atp4405
bsg10
Nstp4406
Rp4407
a(dp4408
g79
(dp4409
g81
g4389
sg82
(lp4410
(dp4411
g85
g86
(I0
I23
I1
tp4412
Rp4413
sg89
g4393
sasstp4414
bsg91
g92
sg10
g4383
sbsS'BUY RICHARD B'
p4415
g2
(g3
g4
Ntp4416
Rp4417
(dp4418
g8
g9
sg11
g2
(g12
g4
Ntp4419
Rp4420
((lp4421
g59
a(lp4422
g20
(g21
(I0
tp4423
g23
tp4424
Rp4425
(I1
(I23
tp4426
g30
I00
(lp4427
I900000
aI649584
aI-694862
aI0
aS'rick.buy@enron.com'
p4428
aI2542813
aI0
aI1053
aI156
aI71
aI0
aI769862
aI400572
aI00
aI901657
aI0
aI330546
aI2333
aI3523
aI2355702
aI3444470
aI0
aI227
atp4429
ba(lp4430
g16
(g17
(dp4431
g19
g20
(g21
(I0
tp4432
g23
tp4433
Rp4434
(I1
(I23
tp4435
g30
I00
(lp4436
g34
ag35
ag36
ag37
ag38
ag39
ag40
ag41
ag42
ag43
ag44
ag45
ag46
ag47
ag48
ag49
ag50
ag51
ag52
ag53
ag54
ag55
ag56
atp4437
bsg10
Nstp4438
Rp4439
a(dp4440
g79
(dp4441
g81
g4421
sg82
(lp4442
(dp4443
g85
g86
(I0
I23
I1
tp4444
Rp4445
sg89
g4425
sasstp4446
bsg91
g92
sg10
g4415
sbsS'GRAMM WENDY L'
p4447
g2
(g3
g4
Ntp4448
Rp4449
(dp4450
g8
g9
sg11
g2
(g12
g4
Ntp4451
Rp4452
((lp4453
g59
a(lp4454
g20
(g21
(I0
tp4455
g23
tp4456
Rp4457
(I1
(I23
tp4458
g30
I00
(lp4459
I0
aI0
aI0
aI119292
ag106
aI0
aI0
aI0
aI0
aI0
aI0
aI0
aI0
aI00
aI0
aI0
aI0
aI0
aI0
aI119292
aI0
aI0
aI0
atp4460
ba(lp4461
g16
(g17
(dp4462
g19
g20
(g21
(I0
tp4463
g23
tp4464
Rp4465
(I1
(I23
tp4466
g30
I00
(lp4467
g34
ag35
ag36
ag37
ag38
ag39
ag40
ag41
ag42
ag43
ag44
ag45
ag46
ag47
ag48
ag49
ag50
ag51
ag52
ag53
ag54
ag55
ag56
atp4468
bsg10
Nstp4469
Rp4470
a(dp4471
g79
(dp4472
g81
g4453
sg82
(lp4473
(dp4474
g85
g86
(I0
I23
I1
tp4475
Rp4476
sg89
g4457
sasstp4477
bsg91
g92
sg10
g4447
sbsS'CAUSEY RICHARD A'
p4478
g2
(g3
g4
Ntp4479
Rp4480
(dp4481
g8
g9
sg11
g2
(g12
g4
Ntp4482
Rp4483
((lp4484
g59
a(lp4485
g20
(g21
(I0
tp4486
g23
tp4487
Rp4488
(I1
(I23
tp4489
g30
I00
(lp4490
I1000000
aI0
aI-235000
aI0
aS'richard.causey@enron.com'
p4491
aI0
aI30674
aI49
aI58
aI12
aI0
aI350000
aI307895
aI01
aI2502063
aI0
aI415189
aI1585
aI1892
aI1868758
aI2502063
aI0
aI70
atp4492
ba(lp4493
g16
(g17
(dp4494
g19
g20
(g21
(I0
tp4495
g23
tp4496
Rp4497
(I1
(I23
tp4498
g30
I00
(lp4499
g34
ag35
ag36
ag37
ag38
ag39
ag40
ag41
ag42
ag43
ag44
ag45
ag46
ag47
ag48
ag49
ag50
ag51
ag52
ag53
ag54
ag55
ag56
atp4500
bsg10
Nstp4501
Rp4502
a(dp4503
g79
(dp4504
g81
g4484
sg82
(lp4505
(dp4506
g85
g86
(I0
I23
I1
tp4507
Rp4508
sg89
g4488
sasstp4509
bsg91
g92
sg10
g4478
sbsS'TAYLOR MITCHELL S'
p4510
g2
(g3
g4
Ntp4511
Rp4512
(dp4513
g8
g9
sg11
g2
(g12
g4
Ntp4514
Rp4515
((lp4516
g59
a(lp4517
g20
(g21
(I0
tp4518
g23
tp4519
Rp4520
(I1
(I23
tp4521
g30
I00
(lp4522
I600000
aI227449
aI0
aI0
aS'mitchell.taylor@enron.com'
p4523
aI3181250
aI0
aI29
aI0
aI0
aI0
aI0
aI0
aI00
aI563798
aI0
aI265214
aI300
aI533
aI1092663
aI3745048
aI0
aI0
atp4524
ba(lp4525
g16
(g17
(dp4526
g19
g20
(g21
(I0
tp4527
g23
tp4528
Rp4529
(I1
(I23
tp4530
g30
I00
(lp4531
g34
ag35
ag36
ag37
ag38
ag39
ag40
ag41
ag42
ag43
ag44
ag45
ag46
ag47
ag48
ag49
ag50
ag51
ag52
ag53
ag54
ag55
ag56
atp4532
bsg10
Nstp4533
Rp4534
a(dp4535
g79
(dp4536
g81
g4516
sg82
(lp4537
(dp4538
g85
g86
(I0
I23
I1
tp4539
Rp4540
sg89
g4520
sasstp4541
bsg91
g92
sg10
g4510
sbsS'DONAHUE JR JEFFREY M'
p4542
g2
(g3
g4
Ntp4543
Rp4544
(dp4545
g8
g9
sg11
g2
(g12
g4
Ntp4546
Rp4547
((lp4548
g59
a(lp4549
g20
(g21
(I0
tp4550
g23
tp4551
Rp4552
(I1
(I23
tp4553
g30
I00
(lp4554
I800000
aI0
aI-300000
aI0
aS'jeff.donahue@enron.com'
p4555
aI765920
aI96268
aI22
aI188
aI11
aI0
aI0
aI891
aI00
aI315068
aI0
aI278601
aI772
aI865
aI875760
aI1080988
aI0
aI199
atp4556
ba(lp4557
g16
(g17
(dp4558
g19
g20
(g21
(I0
tp4559
g23
tp4560
Rp4561
(I1
(I23
tp4562
g30
I00
(lp4563
g34
ag35
ag36
ag37
ag38
ag39
ag40
ag41
ag42
ag43
ag44
ag45
ag46
ag47
ag48
ag49
ag50
ag51
ag52
ag53
ag54
ag55
ag56
atp4564
bsg10
Nstp4565
Rp4566
a(dp4567
g79
(dp4568
g81
g4548
sg82
(lp4569
(dp4570
g85
g86
(I0
I23
I1
tp4571
Rp4572
sg89
g4552
sasstp4573
bsg91
g92
sg10
g4542
sbsS'GLISAN JR BEN F'
p4574
g2
(g3
g4
Ntp4575
Rp4576
(dp4577
g8
g9
sg11
g2
(g12
g4
Ntp4578
Rp4579
((lp4580
g59
a(lp4581
g20
(g21
(I0
tp4582
g23
tp4583
Rp4584
(I1
(I23
tp4585
g30
I00
(lp4586
I600000
aI0
aI0
aI0
aS'ben.glisan@enron.com'
p4587
aI384728
aI125978
aI16
aI52
aI6
aI0
aI71023
aI200308
aI01
aI393818
aI0
aI274975
aI874
aI873
aI1272284
aI778546
aI1
aI58
atp4588
ba(lp4589
g16
(g17
(dp4590
g19
g20
(g21
(I0
tp4591
g23
tp4592
Rp4593
(I1
(I23
tp4594
g30
I00
(lp4595
g34
ag35
ag36
ag37
ag38
ag39
ag40
ag41
ag42
ag43
ag44
ag45
ag46
ag47
ag48
ag49
ag50
ag51
ag52
ag53
ag54
ag55
ag56
atp4596
bsg10
Nstp4597
Rp4598
a(dp4599
g79
(dp4600
g81
g4580
sg82
(lp4601
(dp4602
g85
g86
(I0
I23
I1
tp4603
Rp4604
sg89
g4584
sasstp4605
bsg91
g92
sg10
g4574
sbs.